
000000000040ceee <sendMTFValues>:
  40ceee:	55                   	push   rbp
  40ceef:	48 89 e5             	mov    rbp,rsp
  40cef2:	41 56                	push   r14
  40cef4:	41 55                	push   r13
  40cef6:	41 54                	push   r12
  40cef8:	53                   	push   rbx
  40cef9:	48 81 ec e0 00 00 00 	sub    rsp,0xe0
  40cf00:	48 89 bd 08 ff ff ff 	mov    QWORD PTR [rbp-0xf8],rdi
  40cf07:	48 8b 85 08 ff ff ff 	mov    rax,QWORD PTR [rbp-0xf8]
  40cf0e:	48 8b 40 48          	mov    rax,QWORD PTR [rax+0x48]
  40cf12:	48 89 45 88          	mov    QWORD PTR [rbp-0x78],rax
  40cf16:	48 8b 85 08 ff ff ff 	mov    rax,QWORD PTR [rbp-0xf8]
  40cf1d:	8b 80 90 02 00 00    	mov    eax,DWORD PTR [rax+0x290]
  40cf23:	83 f8 02             	cmp    eax,0x2
  40cf26:	7e 3d                	jle    40cf65 <sendMTFValues+0x77>
  40cf28:	48 8b 85 08 ff ff ff 	mov    rax,QWORD PTR [rbp-0xf8]
  40cf2f:	8b 70 7c             	mov    esi,DWORD PTR [rax+0x7c]
  40cf32:	48 8b 85 08 ff ff ff 	mov    rax,QWORD PTR [rbp-0xf8]
  40cf39:	8b 88 9c 02 00 00    	mov    ecx,DWORD PTR [rax+0x29c]
  40cf3f:	48 8b 85 08 ff ff ff 	mov    rax,QWORD PTR [rbp-0xf8]
  40cf46:	8b 50 6c             	mov    edx,DWORD PTR [rax+0x6c]
  40cf49:	48 8b 05 60 03 21 00 	mov    rax,QWORD PTR [rip+0x210360]        # 61d2b0 <stderr@GLIBC_2.2.5>
  40cf50:	41 89 f0             	mov    r8d,esi
  40cf53:	be 38 ac 41 00       	mov    esi,0x41ac38
  40cf58:	48 89 c7             	mov    rdi,rax
  40cf5b:	b8 00 00 00 00       	mov    eax,0x0
  40cf60:	e8 8b 42 ff ff       	call   4011f0 <fprintf@plt>
  40cf65:	48 8b 85 08 ff ff ff 	mov    rax,QWORD PTR [rbp-0xf8]
  40cf6c:	8b 40 7c             	mov    eax,DWORD PTR [rax+0x7c]
  40cf6f:	83 c0 02             	add    eax,0x2
  40cf72:	89 45 84             	mov    DWORD PTR [rbp-0x7c],eax
  40cf75:	c7 45 d8 00 00 00 00 	mov    DWORD PTR [rbp-0x28],0x0
  40cf7c:	eb 48                	jmp    40cfc6 <sendMTFValues+0xd8>
  40cf7e:	c7 45 dc 00 00 00 00 	mov    DWORD PTR [rbp-0x24],0x0
  40cf85:	eb 33                	jmp    40cfba <sendMTFValues+0xcc>
  40cf87:	48 8b 8d 08 ff ff ff 	mov    rcx,QWORD PTR [rbp-0xf8]
  40cf8e:	8b 45 dc             	mov    eax,DWORD PTR [rbp-0x24]
  40cf91:	48 63 d0             	movsxd rdx,eax
  40cf94:	8b 45 d8             	mov    eax,DWORD PTR [rbp-0x28]
  40cf97:	48 98                	cdqe   
  40cf99:	48 01 c0             	add    rax,rax
  40cf9c:	48 89 c6             	mov    rsi,rax
  40cf9f:	48 c1 e6 07          	shl    rsi,0x7
  40cfa3:	48 01 f0             	add    rax,rsi
  40cfa6:	48 01 c8             	add    rax,rcx
  40cfa9:	48 01 d0             	add    rax,rdx
  40cfac:	48 05 40 93 00 00    	add    rax,0x9340
  40cfb2:	c6 40 0c 0f          	mov    BYTE PTR [rax+0xc],0xf
  40cfb6:	83 45 dc 01          	add    DWORD PTR [rbp-0x24],0x1
  40cfba:	8b 45 dc             	mov    eax,DWORD PTR [rbp-0x24]
  40cfbd:	3b 45 84             	cmp    eax,DWORD PTR [rbp-0x7c]
  40cfc0:	7c c5                	jl     40cf87 <sendMTFValues+0x99>
  40cfc2:	83 45 d8 01          	add    DWORD PTR [rbp-0x28],0x1
  40cfc6:	83 7d d8 05          	cmp    DWORD PTR [rbp-0x28],0x5
  40cfca:	7e b2                	jle    40cf7e <sendMTFValues+0x90>
  40cfcc:	48 8b 85 08 ff ff ff 	mov    rax,QWORD PTR [rbp-0xf8]
  40cfd3:	8b 80 9c 02 00 00    	mov    eax,DWORD PTR [rax+0x29c]
  40cfd9:	85 c0                	test   eax,eax
  40cfdb:	7f 0a                	jg     40cfe7 <sendMTFValues+0xf9>
  40cfdd:	bf b9 0b 00 00       	mov    edi,0xbb9
  40cfe2:	e8 c1 7e ff ff       	call   404ea8 <BZ2_bz__AssertH__fail>
  40cfe7:	48 8b 85 08 ff ff ff 	mov    rax,QWORD PTR [rbp-0xf8]
  40cfee:	8b 80 9c 02 00 00    	mov    eax,DWORD PTR [rax+0x29c]
  40cff4:	3d c7 00 00 00       	cmp    eax,0xc7
  40cff9:	7f 09                	jg     40d004 <sendMTFValues+0x116>
  40cffb:	c7 45 a4 02 00 00 00 	mov    DWORD PTR [rbp-0x5c],0x2
  40d002:	eb 5e                	jmp    40d062 <sendMTFValues+0x174>
  40d004:	48 8b 85 08 ff ff ff 	mov    rax,QWORD PTR [rbp-0xf8]
  40d00b:	8b 80 9c 02 00 00    	mov    eax,DWORD PTR [rax+0x29c]
  40d011:	3d 57 02 00 00       	cmp    eax,0x257
  40d016:	7f 09                	jg     40d021 <sendMTFValues+0x133>
  40d018:	c7 45 a4 03 00 00 00 	mov    DWORD PTR [rbp-0x5c],0x3
  40d01f:	eb 41                	jmp    40d062 <sendMTFValues+0x174>
  40d021:	48 8b 85 08 ff ff ff 	mov    rax,QWORD PTR [rbp-0xf8]
  40d028:	8b 80 9c 02 00 00    	mov    eax,DWORD PTR [rax+0x29c]
  40d02e:	3d af 04 00 00       	cmp    eax,0x4af
  40d033:	7f 09                	jg     40d03e <sendMTFValues+0x150>
  40d035:	c7 45 a4 04 00 00 00 	mov    DWORD PTR [rbp-0x5c],0x4
  40d03c:	eb 24                	jmp    40d062 <sendMTFValues+0x174>
  40d03e:	48 8b 85 08 ff ff ff 	mov    rax,QWORD PTR [rbp-0xf8]
  40d045:	8b 80 9c 02 00 00    	mov    eax,DWORD PTR [rax+0x29c]
  40d04b:	3d 5f 09 00 00       	cmp    eax,0x95f
  40d050:	7f 09                	jg     40d05b <sendMTFValues+0x16d>
  40d052:	c7 45 a4 05 00 00 00 	mov    DWORD PTR [rbp-0x5c],0x5
  40d059:	eb 07                	jmp    40d062 <sendMTFValues+0x174>
  40d05b:	c7 45 a4 06 00 00 00 	mov    DWORD PTR [rbp-0x5c],0x6
  40d062:	8b 45 a4             	mov    eax,DWORD PTR [rbp-0x5c]
  40d065:	89 45 a0             	mov    DWORD PTR [rbp-0x60],eax
  40d068:	48 8b 85 08 ff ff ff 	mov    rax,QWORD PTR [rbp-0xf8]
  40d06f:	8b 80 9c 02 00 00    	mov    eax,DWORD PTR [rax+0x29c]
  40d075:	89 45 9c             	mov    DWORD PTR [rbp-0x64],eax
  40d078:	c7 45 cc 00 00 00 00 	mov    DWORD PTR [rbp-0x34],0x0
  40d07f:	e9 b8 01 00 00       	jmp    40d23c <sendMTFValues+0x34e>
  40d084:	8b 45 9c             	mov    eax,DWORD PTR [rbp-0x64]
  40d087:	89 c2                	mov    edx,eax
  40d089:	c1 fa 1f             	sar    edx,0x1f
  40d08c:	f7 7d a0             	idiv   DWORD PTR [rbp-0x60]
  40d08f:	89 45 80             	mov    DWORD PTR [rbp-0x80],eax
  40d092:	8b 45 cc             	mov    eax,DWORD PTR [rbp-0x34]
  40d095:	83 e8 01             	sub    eax,0x1
  40d098:	89 45 c8             	mov    DWORD PTR [rbp-0x38],eax
  40d09b:	c7 45 98 00 00 00 00 	mov    DWORD PTR [rbp-0x68],0x0
  40d0a2:	eb 1e                	jmp    40d0c2 <sendMTFValues+0x1d4>
  40d0a4:	83 45 c8 01          	add    DWORD PTR [rbp-0x38],0x1
  40d0a8:	48 8b 85 08 ff ff ff 	mov    rax,QWORD PTR [rbp-0xf8]
  40d0af:	8b 55 c8             	mov    edx,DWORD PTR [rbp-0x38]
  40d0b2:	48 63 d2             	movsxd rdx,edx
  40d0b5:	48 81 c2 a8 00 00 00 	add    rdx,0xa8
  40d0bc:	8b 04 90             	mov    eax,DWORD PTR [rax+rdx*4]
  40d0bf:	01 45 98             	add    DWORD PTR [rbp-0x68],eax
  40d0c2:	8b 45 98             	mov    eax,DWORD PTR [rbp-0x68]
  40d0c5:	3b 45 80             	cmp    eax,DWORD PTR [rbp-0x80]
  40d0c8:	7d 0b                	jge    40d0d5 <sendMTFValues+0x1e7>
  40d0ca:	8b 45 84             	mov    eax,DWORD PTR [rbp-0x7c]
  40d0cd:	83 e8 01             	sub    eax,0x1
  40d0d0:	3b 45 c8             	cmp    eax,DWORD PTR [rbp-0x38]
  40d0d3:	7f cf                	jg     40d0a4 <sendMTFValues+0x1b6>
  40d0d5:	8b 45 c8             	mov    eax,DWORD PTR [rbp-0x38]
  40d0d8:	3b 45 cc             	cmp    eax,DWORD PTR [rbp-0x34]
  40d0db:	7e 4c                	jle    40d129 <sendMTFValues+0x23b>
  40d0dd:	8b 45 a0             	mov    eax,DWORD PTR [rbp-0x60]
  40d0e0:	3b 45 a4             	cmp    eax,DWORD PTR [rbp-0x5c]
  40d0e3:	74 44                	je     40d129 <sendMTFValues+0x23b>
  40d0e5:	83 7d a0 01          	cmp    DWORD PTR [rbp-0x60],0x1
  40d0e9:	74 3e                	je     40d129 <sendMTFValues+0x23b>
  40d0eb:	8b 45 a0             	mov    eax,DWORD PTR [rbp-0x60]
  40d0ee:	8b 55 a4             	mov    edx,DWORD PTR [rbp-0x5c]
  40d0f1:	29 c2                	sub    edx,eax
  40d0f3:	89 d0                	mov    eax,edx
  40d0f5:	c1 f8 1f             	sar    eax,0x1f
  40d0f8:	c1 e8 1f             	shr    eax,0x1f
  40d0fb:	01 c2                	add    edx,eax
  40d0fd:	83 e2 01             	and    edx,0x1
  40d100:	89 d1                	mov    ecx,edx
  40d102:	29 c1                	sub    ecx,eax
  40d104:	89 c8                	mov    eax,ecx
  40d106:	83 f8 01             	cmp    eax,0x1
  40d109:	75 1e                	jne    40d129 <sendMTFValues+0x23b>
  40d10b:	48 8b 85 08 ff ff ff 	mov    rax,QWORD PTR [rbp-0xf8]
  40d112:	8b 55 c8             	mov    edx,DWORD PTR [rbp-0x38]
  40d115:	48 63 d2             	movsxd rdx,edx
  40d118:	48 81 c2 a8 00 00 00 	add    rdx,0xa8
  40d11f:	8b 04 90             	mov    eax,DWORD PTR [rax+rdx*4]
  40d122:	29 45 98             	sub    DWORD PTR [rbp-0x68],eax
  40d125:	83 6d c8 01          	sub    DWORD PTR [rbp-0x38],0x1
  40d129:	48 8b 85 08 ff ff ff 	mov    rax,QWORD PTR [rbp-0xf8]
  40d130:	8b 80 90 02 00 00    	mov    eax,DWORD PTR [rax+0x290]
  40d136:	83 f8 02             	cmp    eax,0x2
  40d139:	7e 5d                	jle    40d198 <sendMTFValues+0x2aa>
  40d13b:	f3 0f 2a 45 98       	cvtsi2ss xmm0,DWORD PTR [rbp-0x68]
  40d140:	0f 14 c0             	unpcklps xmm0,xmm0
  40d143:	0f 5a c0             	cvtps2pd xmm0,xmm0
  40d146:	f2 0f 10 0d 4a dc 00 	movsd  xmm1,QWORD PTR [rip+0xdc4a]        # 41ad98 <_IO_stdin_used+0x2750>
  40d14d:	00 
  40d14e:	f2 0f 59 c1          	mulsd  xmm0,xmm1
  40d152:	48 8b 85 08 ff ff ff 	mov    rax,QWORD PTR [rbp-0xf8]
  40d159:	8b 80 9c 02 00 00    	mov    eax,DWORD PTR [rax+0x29c]
  40d15f:	f3 0f 2a c8          	cvtsi2ss xmm1,eax
  40d163:	0f 14 c9             	unpcklps xmm1,xmm1
  40d166:	0f 5a c9             	cvtps2pd xmm1,xmm1
  40d169:	f2 0f 5e c1          	divsd  xmm0,xmm1
  40d16d:	48 8b 05 3c 01 21 00 	mov    rax,QWORD PTR [rip+0x21013c]        # 61d2b0 <stderr@GLIBC_2.2.5>
  40d174:	8b 7d 98             	mov    edi,DWORD PTR [rbp-0x68]
  40d177:	8b 75 c8             	mov    esi,DWORD PTR [rbp-0x38]
  40d17a:	8b 4d cc             	mov    ecx,DWORD PTR [rbp-0x34]
  40d17d:	8b 55 a0             	mov    edx,DWORD PTR [rbp-0x60]
  40d180:	41 89 f9             	mov    r9d,edi
  40d183:	41 89 f0             	mov    r8d,esi
  40d186:	be 78 ac 41 00       	mov    esi,0x41ac78
  40d18b:	48 89 c7             	mov    rdi,rax
  40d18e:	b8 01 00 00 00       	mov    eax,0x1
  40d193:	e8 58 40 ff ff       	call   4011f0 <fprintf@plt>
  40d198:	c7 45 dc 00 00 00 00 	mov    DWORD PTR [rbp-0x24],0x0
  40d19f:	eb 7c                	jmp    40d21d <sendMTFValues+0x32f>
  40d1a1:	8b 45 dc             	mov    eax,DWORD PTR [rbp-0x24]
  40d1a4:	3b 45 cc             	cmp    eax,DWORD PTR [rbp-0x34]
  40d1a7:	7c 3d                	jl     40d1e6 <sendMTFValues+0x2f8>
  40d1a9:	8b 45 dc             	mov    eax,DWORD PTR [rbp-0x24]
  40d1ac:	3b 45 c8             	cmp    eax,DWORD PTR [rbp-0x38]
  40d1af:	7f 35                	jg     40d1e6 <sendMTFValues+0x2f8>
  40d1b1:	8b 45 a0             	mov    eax,DWORD PTR [rbp-0x60]
  40d1b4:	8d 70 ff             	lea    esi,[rax-0x1]
  40d1b7:	48 8b 8d 08 ff ff ff 	mov    rcx,QWORD PTR [rbp-0xf8]
  40d1be:	8b 45 dc             	mov    eax,DWORD PTR [rbp-0x24]
  40d1c1:	48 63 d0             	movsxd rdx,eax
  40d1c4:	48 63 c6             	movsxd rax,esi
  40d1c7:	48 01 c0             	add    rax,rax
  40d1ca:	48 89 c6             	mov    rsi,rax
  40d1cd:	48 c1 e6 07          	shl    rsi,0x7
  40d1d1:	48 01 f0             	add    rax,rsi
  40d1d4:	48 01 c8             	add    rax,rcx
  40d1d7:	48 01 d0             	add    rax,rdx
  40d1da:	48 05 40 93 00 00    	add    rax,0x9340
  40d1e0:	c6 40 0c 00          	mov    BYTE PTR [rax+0xc],0x0
  40d1e4:	eb 33                	jmp    40d219 <sendMTFValues+0x32b>
  40d1e6:	8b 45 a0             	mov    eax,DWORD PTR [rbp-0x60]
  40d1e9:	8d 70 ff             	lea    esi,[rax-0x1]
  40d1ec:	48 8b 8d 08 ff ff ff 	mov    rcx,QWORD PTR [rbp-0xf8]
  40d1f3:	8b 45 dc             	mov    eax,DWORD PTR [rbp-0x24]
  40d1f6:	48 63 d0             	movsxd rdx,eax
  40d1f9:	48 63 c6             	movsxd rax,esi
  40d1fc:	48 01 c0             	add    rax,rax
  40d1ff:	48 89 c6             	mov    rsi,rax
  40d202:	48 c1 e6 07          	shl    rsi,0x7
  40d206:	48 01 f0             	add    rax,rsi
  40d209:	48 01 c8             	add    rax,rcx
  40d20c:	48 01 d0             	add    rax,rdx
  40d20f:	48 05 40 93 00 00    	add    rax,0x9340
  40d215:	c6 40 0c 0f          	mov    BYTE PTR [rax+0xc],0xf
  40d219:	83 45 dc 01          	add    DWORD PTR [rbp-0x24],0x1
  40d21d:	8b 45 dc             	mov    eax,DWORD PTR [rbp-0x24]
  40d220:	3b 45 84             	cmp    eax,DWORD PTR [rbp-0x7c]
  40d223:	0f 8c 78 ff ff ff    	jl     40d1a1 <sendMTFValues+0x2b3>
  40d229:	83 6d a0 01          	sub    DWORD PTR [rbp-0x60],0x1
  40d22d:	8b 45 c8             	mov    eax,DWORD PTR [rbp-0x38]
  40d230:	83 c0 01             	add    eax,0x1
  40d233:	89 45 cc             	mov    DWORD PTR [rbp-0x34],eax
  40d236:	8b 45 98             	mov    eax,DWORD PTR [rbp-0x68]
  40d239:	29 45 9c             	sub    DWORD PTR [rbp-0x64],eax
  40d23c:	83 7d a0 00          	cmp    DWORD PTR [rbp-0x60],0x0
  40d240:	0f 8f 3e fe ff ff    	jg     40d084 <sendMTFValues+0x196>
  40d246:	c7 45 b8 00 00 00 00 	mov    DWORD PTR [rbp-0x48],0x0
  40d24d:	e9 8d 32 00 00       	jmp    4104df <sendMTFValues+0x35f1>
  40d252:	c7 45 d8 00 00 00 00 	mov    DWORD PTR [rbp-0x28],0x0
  40d259:	eb 14                	jmp    40d26f <sendMTFValues+0x381>
  40d25b:	8b 45 d8             	mov    eax,DWORD PTR [rbp-0x28]
  40d25e:	48 98                	cdqe   
  40d260:	c7 84 85 30 ff ff ff 	mov    DWORD PTR [rbp+rax*4-0xd0],0x0
  40d267:	00 00 00 00 
  40d26b:	83 45 d8 01          	add    DWORD PTR [rbp-0x28],0x1
  40d26f:	8b 45 d8             	mov    eax,DWORD PTR [rbp-0x28]
  40d272:	3b 45 a4             	cmp    eax,DWORD PTR [rbp-0x5c]
  40d275:	7c e4                	jl     40d25b <sendMTFValues+0x36d>
  40d277:	c7 45 d8 00 00 00 00 	mov    DWORD PTR [rbp-0x28],0x0
  40d27e:	eb 49                	jmp    40d2c9 <sendMTFValues+0x3db>
  40d280:	c7 45 dc 00 00 00 00 	mov    DWORD PTR [rbp-0x24],0x0
  40d287:	eb 34                	jmp    40d2bd <sendMTFValues+0x3cf>
  40d289:	48 8b 95 08 ff ff ff 	mov    rdx,QWORD PTR [rbp-0xf8]
  40d290:	8b 45 dc             	mov    eax,DWORD PTR [rbp-0x24]
  40d293:	48 63 c8             	movsxd rcx,eax
  40d296:	8b 45 d8             	mov    eax,DWORD PTR [rbp-0x28]
  40d299:	48 98                	cdqe   
  40d29b:	48 01 c0             	add    rax,rax
  40d29e:	48 89 c6             	mov    rsi,rax
  40d2a1:	48 c1 e6 07          	shl    rsi,0x7
  40d2a5:	48 01 f0             	add    rax,rsi
  40d2a8:	48 01 c8             	add    rax,rcx
  40d2ab:	48 05 60 2c 00 00    	add    rax,0x2c60
  40d2b1:	c7 44 82 08 00 00 00 	mov    DWORD PTR [rdx+rax*4+0x8],0x0
  40d2b8:	00 
  40d2b9:	83 45 dc 01          	add    DWORD PTR [rbp-0x24],0x1
  40d2bd:	8b 45 dc             	mov    eax,DWORD PTR [rbp-0x24]
  40d2c0:	3b 45 84             	cmp    eax,DWORD PTR [rbp-0x7c]
  40d2c3:	7c c4                	jl     40d289 <sendMTFValues+0x39b>
  40d2c5:	83 45 d8 01          	add    DWORD PTR [rbp-0x28],0x1
  40d2c9:	8b 45 d8             	mov    eax,DWORD PTR [rbp-0x28]
  40d2cc:	3b 45 a4             	cmp    eax,DWORD PTR [rbp-0x5c]
  40d2cf:	7c af                	jl     40d280 <sendMTFValues+0x392>
  40d2d1:	83 7d a4 06          	cmp    DWORD PTR [rbp-0x5c],0x6
  40d2d5:	0f 85 15 01 00 00    	jne    40d3f0 <sendMTFValues+0x502>
  40d2db:	c7 45 dc 00 00 00 00 	mov    DWORD PTR [rbp-0x24],0x0
  40d2e2:	e9 fd 00 00 00       	jmp    40d3e4 <sendMTFValues+0x4f6>
  40d2e7:	48 8b 95 08 ff ff ff 	mov    rdx,QWORD PTR [rbp-0xf8]
  40d2ee:	8b 45 dc             	mov    eax,DWORD PTR [rbp-0x24]
  40d2f1:	48 98                	cdqe   
  40d2f3:	0f b6 84 02 4e 94 00 	movzx  eax,BYTE PTR [rdx+rax*1+0x944e]
  40d2fa:	00 
  40d2fb:	0f b6 c0             	movzx  eax,al
  40d2fe:	89 c1                	mov    ecx,eax
  40d300:	c1 e1 10             	shl    ecx,0x10
  40d303:	48 8b 95 08 ff ff ff 	mov    rdx,QWORD PTR [rbp-0xf8]
  40d30a:	8b 45 dc             	mov    eax,DWORD PTR [rbp-0x24]
  40d30d:	48 98                	cdqe   
  40d30f:	0f b6 84 02 4c 93 00 	movzx  eax,BYTE PTR [rdx+rax*1+0x934c]
  40d316:	00 
  40d317:	0f b6 c0             	movzx  eax,al
  40d31a:	09 c8                	or     eax,ecx
  40d31c:	48 8b 95 08 ff ff ff 	mov    rdx,QWORD PTR [rbp-0xf8]
  40d323:	8b 4d dc             	mov    ecx,DWORD PTR [rbp-0x24]
  40d326:	48 63 c9             	movsxd rcx,ecx
  40d329:	48 81 c1 9b 0c 00 00 	add    rcx,0xc9b
  40d330:	48 c1 e1 04          	shl    rcx,0x4
  40d334:	48 01 ca             	add    rdx,rcx
  40d337:	89 42 08             	mov    DWORD PTR [rdx+0x8],eax
  40d33a:	48 8b 95 08 ff ff ff 	mov    rdx,QWORD PTR [rbp-0xf8]
  40d341:	8b 45 dc             	mov    eax,DWORD PTR [rbp-0x24]
  40d344:	48 98                	cdqe   
  40d346:	0f b6 84 02 52 96 00 	movzx  eax,BYTE PTR [rdx+rax*1+0x9652]
  40d34d:	00 
  40d34e:	0f b6 c0             	movzx  eax,al
  40d351:	89 c1                	mov    ecx,eax
  40d353:	c1 e1 10             	shl    ecx,0x10
  40d356:	48 8b 95 08 ff ff ff 	mov    rdx,QWORD PTR [rbp-0xf8]
  40d35d:	8b 45 dc             	mov    eax,DWORD PTR [rbp-0x24]
  40d360:	48 98                	cdqe   
  40d362:	0f b6 84 02 50 95 00 	movzx  eax,BYTE PTR [rdx+rax*1+0x9550]
  40d369:	00 
  40d36a:	0f b6 c0             	movzx  eax,al
  40d36d:	09 c8                	or     eax,ecx
  40d36f:	48 8b 95 08 ff ff ff 	mov    rdx,QWORD PTR [rbp-0xf8]
  40d376:	8b 4d dc             	mov    ecx,DWORD PTR [rbp-0x24]
  40d379:	48 63 c9             	movsxd rcx,ecx
  40d37c:	48 c1 e1 04          	shl    rcx,0x4
  40d380:	48 01 ca             	add    rdx,rcx
  40d383:	48 81 c2 b4 c9 00 00 	add    rdx,0xc9b4
  40d38a:	89 42 08             	mov    DWORD PTR [rdx+0x8],eax
  40d38d:	48 8b 95 08 ff ff ff 	mov    rdx,QWORD PTR [rbp-0xf8]
  40d394:	8b 45 dc             	mov    eax,DWORD PTR [rbp-0x24]
  40d397:	48 98                	cdqe   
  40d399:	0f b6 84 02 56 98 00 	movzx  eax,BYTE PTR [rdx+rax*1+0x9856]
  40d3a0:	00 
  40d3a1:	0f b6 c0             	movzx  eax,al
  40d3a4:	89 c1                	mov    ecx,eax
  40d3a6:	c1 e1 10             	shl    ecx,0x10
  40d3a9:	48 8b 95 08 ff ff ff 	mov    rdx,QWORD PTR [rbp-0xf8]
  40d3b0:	8b 45 dc             	mov    eax,DWORD PTR [rbp-0x24]
  40d3b3:	48 98                	cdqe   
  40d3b5:	0f b6 84 02 54 97 00 	movzx  eax,BYTE PTR [rdx+rax*1+0x9754]
  40d3bc:	00 
  40d3bd:	0f b6 c0             	movzx  eax,al
  40d3c0:	09 c8                	or     eax,ecx
  40d3c2:	48 8b 95 08 ff ff ff 	mov    rdx,QWORD PTR [rbp-0xf8]
  40d3c9:	8b 4d dc             	mov    ecx,DWORD PTR [rbp-0x24]
  40d3cc:	48 63 c9             	movsxd rcx,ecx
  40d3cf:	48 c1 e1 04          	shl    rcx,0x4
  40d3d3:	48 01 ca             	add    rdx,rcx
  40d3d6:	48 81 c2 b8 c9 00 00 	add    rdx,0xc9b8
  40d3dd:	89 42 08             	mov    DWORD PTR [rdx+0x8],eax
  40d3e0:	83 45 dc 01          	add    DWORD PTR [rbp-0x24],0x1
  40d3e4:	8b 45 dc             	mov    eax,DWORD PTR [rbp-0x24]
  40d3e7:	3b 45 84             	cmp    eax,DWORD PTR [rbp-0x7c]
  40d3ea:	0f 8c f7 fe ff ff    	jl     40d2e7 <sendMTFValues+0x3f9>
  40d3f0:	c7 45 b4 00 00 00 00 	mov    DWORD PTR [rbp-0x4c],0x0
  40d3f7:	c7 45 c4 00 00 00 00 	mov    DWORD PTR [rbp-0x3c],0x0
  40d3fe:	c7 45 cc 00 00 00 00 	mov    DWORD PTR [rbp-0x34],0x0
  40d405:	48 8b 85 08 ff ff ff 	mov    rax,QWORD PTR [rbp-0xf8]
  40d40c:	8b 80 9c 02 00 00    	mov    eax,DWORD PTR [rax+0x29c]
  40d412:	3b 45 cc             	cmp    eax,DWORD PTR [rbp-0x34]
  40d415:	0f 8e b5 2f 00 00    	jle    4103d0 <sendMTFValues+0x34e2>
  40d41b:	8b 45 cc             	mov    eax,DWORD PTR [rbp-0x34]
  40d41e:	83 c0 31             	add    eax,0x31
  40d421:	89 45 c8             	mov    DWORD PTR [rbp-0x38],eax
  40d424:	48 8b 85 08 ff ff ff 	mov    rax,QWORD PTR [rbp-0xf8]
  40d42b:	8b 80 9c 02 00 00    	mov    eax,DWORD PTR [rax+0x29c]
  40d431:	3b 45 c8             	cmp    eax,DWORD PTR [rbp-0x38]
  40d434:	7f 13                	jg     40d449 <sendMTFValues+0x55b>
  40d436:	48 8b 85 08 ff ff ff 	mov    rax,QWORD PTR [rbp-0xf8]
  40d43d:	8b 80 9c 02 00 00    	mov    eax,DWORD PTR [rax+0x29c]
  40d443:	83 e8 01             	sub    eax,0x1
  40d446:	89 45 c8             	mov    DWORD PTR [rbp-0x38],eax
  40d449:	c7 45 d8 00 00 00 00 	mov    DWORD PTR [rbp-0x28],0x0
  40d450:	eb 13                	jmp    40d465 <sendMTFValues+0x577>
  40d452:	8b 45 d8             	mov    eax,DWORD PTR [rbp-0x28]
  40d455:	48 98                	cdqe   
  40d457:	66 c7 84 45 50 ff ff 	mov    WORD PTR [rbp+rax*2-0xb0],0x0
  40d45e:	ff 00 00 
  40d461:	83 45 d8 01          	add    DWORD PTR [rbp-0x28],0x1
  40d465:	8b 45 d8             	mov    eax,DWORD PTR [rbp-0x28]
  40d468:	3b 45 a4             	cmp    eax,DWORD PTR [rbp-0x5c]
  40d46b:	7c e5                	jl     40d452 <sendMTFValues+0x564>
  40d46d:	83 7d a4 06          	cmp    DWORD PTR [rbp-0x5c],0x6
  40d471:	0f 85 d7 17 00 00    	jne    40ec4e <sendMTFValues+0x1d60>
  40d477:	8b 45 cc             	mov    eax,DWORD PTR [rbp-0x34]
  40d47a:	8b 55 c8             	mov    edx,DWORD PTR [rbp-0x38]
  40d47d:	89 d1                	mov    ecx,edx
  40d47f:	29 c1                	sub    ecx,eax
  40d481:	89 c8                	mov    eax,ecx
  40d483:	83 f8 31             	cmp    eax,0x31
  40d486:	0f 85 c2 17 00 00    	jne    40ec4e <sendMTFValues+0x1d60>
  40d48c:	41 bc 00 00 00 00    	mov    r12d,0x0
  40d492:	45 89 e5             	mov    r13d,r12d
  40d495:	45 89 ee             	mov    r14d,r13d
  40d498:	8b 45 cc             	mov    eax,DWORD PTR [rbp-0x34]
  40d49b:	48 98                	cdqe   
  40d49d:	48 8d 14 00          	lea    rdx,[rax+rax*1]
  40d4a1:	48 8b 45 88          	mov    rax,QWORD PTR [rbp-0x78]
  40d4a5:	48 01 d0             	add    rax,rdx
  40d4a8:	0f b7 18             	movzx  ebx,WORD PTR [rax]
  40d4ab:	0f b7 d3             	movzx  edx,bx
  40d4ae:	48 8b 85 08 ff ff ff 	mov    rax,QWORD PTR [rbp-0xf8]
  40d4b5:	48 63 d2             	movsxd rdx,edx
  40d4b8:	48 81 c2 9b 0c 00 00 	add    rdx,0xc9b
  40d4bf:	48 c1 e2 04          	shl    rdx,0x4
  40d4c3:	48 01 d0             	add    rax,rdx
  40d4c6:	8b 40 08             	mov    eax,DWORD PTR [rax+0x8]
  40d4c9:	41 01 c6             	add    r14d,eax
  40d4cc:	0f b7 d3             	movzx  edx,bx
  40d4cf:	48 8b 85 08 ff ff ff 	mov    rax,QWORD PTR [rbp-0xf8]
  40d4d6:	48 63 d2             	movsxd rdx,edx
  40d4d9:	48 c1 e2 04          	shl    rdx,0x4
  40d4dd:	48 01 d0             	add    rax,rdx
  40d4e0:	48 05 b4 c9 00 00    	add    rax,0xc9b4
  40d4e6:	8b 40 08             	mov    eax,DWORD PTR [rax+0x8]
  40d4e9:	41 01 c5             	add    r13d,eax
  40d4ec:	0f b7 d3             	movzx  edx,bx
  40d4ef:	48 8b 85 08 ff ff ff 	mov    rax,QWORD PTR [rbp-0xf8]
  40d4f6:	48 63 d2             	movsxd rdx,edx
  40d4f9:	48 c1 e2 04          	shl    rdx,0x4
  40d4fd:	48 01 d0             	add    rax,rdx
  40d500:	48 05 b8 c9 00 00    	add    rax,0xc9b8
  40d506:	8b 40 08             	mov    eax,DWORD PTR [rax+0x8]
  40d509:	41 01 c4             	add    r12d,eax
  40d50c:	8b 45 cc             	mov    eax,DWORD PTR [rbp-0x34]
  40d50f:	48 98                	cdqe   
  40d511:	48 83 c0 01          	add    rax,0x1
  40d515:	48 8d 14 00          	lea    rdx,[rax+rax*1]
  40d519:	48 8b 45 88          	mov    rax,QWORD PTR [rbp-0x78]
  40d51d:	48 01 d0             	add    rax,rdx
  40d520:	0f b7 18             	movzx  ebx,WORD PTR [rax]
  40d523:	0f b7 d3             	movzx  edx,bx
  40d526:	48 8b 85 08 ff ff ff 	mov    rax,QWORD PTR [rbp-0xf8]
  40d52d:	48 63 d2             	movsxd rdx,edx
  40d530:	48 81 c2 9b 0c 00 00 	add    rdx,0xc9b
  40d537:	48 c1 e2 04          	shl    rdx,0x4
  40d53b:	48 01 d0             	add    rax,rdx
  40d53e:	8b 40 08             	mov    eax,DWORD PTR [rax+0x8]
  40d541:	41 01 c6             	add    r14d,eax
  40d544:	0f b7 d3             	movzx  edx,bx
  40d547:	48 8b 85 08 ff ff ff 	mov    rax,QWORD PTR [rbp-0xf8]
  40d54e:	48 63 d2             	movsxd rdx,edx
  40d551:	48 c1 e2 04          	shl    rdx,0x4
  40d555:	48 01 d0             	add    rax,rdx
  40d558:	48 05 b4 c9 00 00    	add    rax,0xc9b4
  40d55e:	8b 40 08             	mov    eax,DWORD PTR [rax+0x8]
  40d561:	41 01 c5             	add    r13d,eax
  40d564:	0f b7 d3             	movzx  edx,bx
  40d567:	48 8b 85 08 ff ff ff 	mov    rax,QWORD PTR [rbp-0xf8]
  40d56e:	48 63 d2             	movsxd rdx,edx
  40d571:	48 c1 e2 04          	shl    rdx,0x4
  40d575:	48 01 d0             	add    rax,rdx
  40d578:	48 05 b8 c9 00 00    	add    rax,0xc9b8
  40d57e:	8b 40 08             	mov    eax,DWORD PTR [rax+0x8]
  40d581:	41 01 c4             	add    r12d,eax
  40d584:	8b 45 cc             	mov    eax,DWORD PTR [rbp-0x34]
  40d587:	48 98                	cdqe   
  40d589:	48 83 c0 02          	add    rax,0x2
  40d58d:	48 8d 14 00          	lea    rdx,[rax+rax*1]
  40d591:	48 8b 45 88          	mov    rax,QWORD PTR [rbp-0x78]
  40d595:	48 01 d0             	add    rax,rdx
  40d598:	0f b7 18             	movzx  ebx,WORD PTR [rax]
  40d59b:	0f b7 d3             	movzx  edx,bx
  40d59e:	48 8b 85 08 ff ff ff 	mov    rax,QWORD PTR [rbp-0xf8]
  40d5a5:	48 63 d2             	movsxd rdx,edx
  40d5a8:	48 81 c2 9b 0c 00 00 	add    rdx,0xc9b
  40d5af:	48 c1 e2 04          	shl    rdx,0x4
  40d5b3:	48 01 d0             	add    rax,rdx
  40d5b6:	8b 40 08             	mov    eax,DWORD PTR [rax+0x8]
  40d5b9:	41 01 c6             	add    r14d,eax
  40d5bc:	0f b7 d3             	movzx  edx,bx
  40d5bf:	48 8b 85 08 ff ff ff 	mov    rax,QWORD PTR [rbp-0xf8]
  40d5c6:	48 63 d2             	movsxd rdx,edx
  40d5c9:	48 c1 e2 04          	shl    rdx,0x4
  40d5cd:	48 01 d0             	add    rax,rdx
  40d5d0:	48 05 b4 c9 00 00    	add    rax,0xc9b4
  40d5d6:	8b 40 08             	mov    eax,DWORD PTR [rax+0x8]
  40d5d9:	41 01 c5             	add    r13d,eax
  40d5dc:	0f b7 d3             	movzx  edx,bx
  40d5df:	48 8b 85 08 ff ff ff 	mov    rax,QWORD PTR [rbp-0xf8]
  40d5e6:	48 63 d2             	movsxd rdx,edx
  40d5e9:	48 c1 e2 04          	shl    rdx,0x4
  40d5ed:	48 01 d0             	add    rax,rdx
  40d5f0:	48 05 b8 c9 00 00    	add    rax,0xc9b8
  40d5f6:	8b 40 08             	mov    eax,DWORD PTR [rax+0x8]
  40d5f9:	41 01 c4             	add    r12d,eax
  40d5fc:	8b 45 cc             	mov    eax,DWORD PTR [rbp-0x34]
  40d5ff:	48 98                	cdqe   
  40d601:	48 83 c0 03          	add    rax,0x3
  40d605:	48 8d 14 00          	lea    rdx,[rax+rax*1]
  40d609:	48 8b 45 88          	mov    rax,QWORD PTR [rbp-0x78]
  40d60d:	48 01 d0             	add    rax,rdx
  40d610:	0f b7 18             	movzx  ebx,WORD PTR [rax]
  40d613:	0f b7 d3             	movzx  edx,bx
  40d616:	48 8b 85 08 ff ff ff 	mov    rax,QWORD PTR [rbp-0xf8]
  40d61d:	48 63 d2             	movsxd rdx,edx
  40d620:	48 81 c2 9b 0c 00 00 	add    rdx,0xc9b
  40d627:	48 c1 e2 04          	shl    rdx,0x4
  40d62b:	48 01 d0             	add    rax,rdx
  40d62e:	8b 40 08             	mov    eax,DWORD PTR [rax+0x8]
  40d631:	41 01 c6             	add    r14d,eax
  40d634:	0f b7 d3             	movzx  edx,bx
  40d637:	48 8b 85 08 ff ff ff 	mov    rax,QWORD PTR [rbp-0xf8]
  40d63e:	48 63 d2             	movsxd rdx,edx
  40d641:	48 c1 e2 04          	shl    rdx,0x4
  40d645:	48 01 d0             	add    rax,rdx
  40d648:	48 05 b4 c9 00 00    	add    rax,0xc9b4
  40d64e:	8b 40 08             	mov    eax,DWORD PTR [rax+0x8]
  40d651:	41 01 c5             	add    r13d,eax
  40d654:	0f b7 d3             	movzx  edx,bx
  40d657:	48 8b 85 08 ff ff ff 	mov    rax,QWORD PTR [rbp-0xf8]
  40d65e:	48 63 d2             	movsxd rdx,edx
  40d661:	48 c1 e2 04          	shl    rdx,0x4
  40d665:	48 01 d0             	add    rax,rdx
  40d668:	48 05 b8 c9 00 00    	add    rax,0xc9b8
  40d66e:	8b 40 08             	mov    eax,DWORD PTR [rax+0x8]
  40d671:	41 01 c4             	add    r12d,eax
  40d674:	8b 45 cc             	mov    eax,DWORD PTR [rbp-0x34]
  40d677:	48 98                	cdqe   
  40d679:	48 83 c0 04          	add    rax,0x4
  40d67d:	48 8d 14 00          	lea    rdx,[rax+rax*1]
  40d681:	48 8b 45 88          	mov    rax,QWORD PTR [rbp-0x78]
  40d685:	48 01 d0             	add    rax,rdx
  40d688:	0f b7 18             	movzx  ebx,WORD PTR [rax]
  40d68b:	0f b7 d3             	movzx  edx,bx
  40d68e:	48 8b 85 08 ff ff ff 	mov    rax,QWORD PTR [rbp-0xf8]
  40d695:	48 63 d2             	movsxd rdx,edx
  40d698:	48 81 c2 9b 0c 00 00 	add    rdx,0xc9b
  40d69f:	48 c1 e2 04          	shl    rdx,0x4
  40d6a3:	48 01 d0             	add    rax,rdx
  40d6a6:	8b 40 08             	mov    eax,DWORD PTR [rax+0x8]
  40d6a9:	41 01 c6             	add    r14d,eax
  40d6ac:	0f b7 d3             	movzx  edx,bx
  40d6af:	48 8b 85 08 ff ff ff 	mov    rax,QWORD PTR [rbp-0xf8]
  40d6b6:	48 63 d2             	movsxd rdx,edx
  40d6b9:	48 c1 e2 04          	shl    rdx,0x4
  40d6bd:	48 01 d0             	add    rax,rdx
  40d6c0:	48 05 b4 c9 00 00    	add    rax,0xc9b4
  40d6c6:	8b 40 08             	mov    eax,DWORD PTR [rax+0x8]
  40d6c9:	41 01 c5             	add    r13d,eax
  40d6cc:	0f b7 d3             	movzx  edx,bx
  40d6cf:	48 8b 85 08 ff ff ff 	mov    rax,QWORD PTR [rbp-0xf8]
  40d6d6:	48 63 d2             	movsxd rdx,edx
  40d6d9:	48 c1 e2 04          	shl    rdx,0x4
  40d6dd:	48 01 d0             	add    rax,rdx
  40d6e0:	48 05 b8 c9 00 00    	add    rax,0xc9b8
  40d6e6:	8b 40 08             	mov    eax,DWORD PTR [rax+0x8]
  40d6e9:	41 01 c4             	add    r12d,eax
  40d6ec:	8b 45 cc             	mov    eax,DWORD PTR [rbp-0x34]
  40d6ef:	48 98                	cdqe   
  40d6f1:	48 83 c0 05          	add    rax,0x5
  40d6f5:	48 8d 14 00          	lea    rdx,[rax+rax*1]
  40d6f9:	48 8b 45 88          	mov    rax,QWORD PTR [rbp-0x78]
  40d6fd:	48 01 d0             	add    rax,rdx
  40d700:	0f b7 18             	movzx  ebx,WORD PTR [rax]
  40d703:	0f b7 d3             	movzx  edx,bx
  40d706:	48 8b 85 08 ff ff ff 	mov    rax,QWORD PTR [rbp-0xf8]
  40d70d:	48 63 d2             	movsxd rdx,edx
  40d710:	48 81 c2 9b 0c 00 00 	add    rdx,0xc9b
  40d717:	48 c1 e2 04          	shl    rdx,0x4
  40d71b:	48 01 d0             	add    rax,rdx
  40d71e:	8b 40 08             	mov    eax,DWORD PTR [rax+0x8]
  40d721:	41 01 c6             	add    r14d,eax
  40d724:	0f b7 d3             	movzx  edx,bx
  40d727:	48 8b 85 08 ff ff ff 	mov    rax,QWORD PTR [rbp-0xf8]
  40d72e:	48 63 d2             	movsxd rdx,edx
  40d731:	48 c1 e2 04          	shl    rdx,0x4
  40d735:	48 01 d0             	add    rax,rdx
  40d738:	48 05 b4 c9 00 00    	add    rax,0xc9b4
  40d73e:	8b 40 08             	mov    eax,DWORD PTR [rax+0x8]
  40d741:	41 01 c5             	add    r13d,eax
  40d744:	0f b7 d3             	movzx  edx,bx
  40d747:	48 8b 85 08 ff ff ff 	mov    rax,QWORD PTR [rbp-0xf8]
  40d74e:	48 63 d2             	movsxd rdx,edx
  40d751:	48 c1 e2 04          	shl    rdx,0x4
  40d755:	48 01 d0             	add    rax,rdx
  40d758:	48 05 b8 c9 00 00    	add    rax,0xc9b8
  40d75e:	8b 40 08             	mov    eax,DWORD PTR [rax+0x8]
  40d761:	41 01 c4             	add    r12d,eax
  40d764:	8b 45 cc             	mov    eax,DWORD PTR [rbp-0x34]
  40d767:	48 98                	cdqe   
  40d769:	48 83 c0 06          	add    rax,0x6
  40d76d:	48 8d 14 00          	lea    rdx,[rax+rax*1]
  40d771:	48 8b 45 88          	mov    rax,QWORD PTR [rbp-0x78]
  40d775:	48 01 d0             	add    rax,rdx
  40d778:	0f b7 18             	movzx  ebx,WORD PTR [rax]
  40d77b:	0f b7 d3             	movzx  edx,bx
  40d77e:	48 8b 85 08 ff ff ff 	mov    rax,QWORD PTR [rbp-0xf8]
  40d785:	48 63 d2             	movsxd rdx,edx
  40d788:	48 81 c2 9b 0c 00 00 	add    rdx,0xc9b
  40d78f:	48 c1 e2 04          	shl    rdx,0x4
  40d793:	48 01 d0             	add    rax,rdx
  40d796:	8b 40 08             	mov    eax,DWORD PTR [rax+0x8]
  40d799:	41 01 c6             	add    r14d,eax
  40d79c:	0f b7 d3             	movzx  edx,bx
  40d79f:	48 8b 85 08 ff ff ff 	mov    rax,QWORD PTR [rbp-0xf8]
  40d7a6:	48 63 d2             	movsxd rdx,edx
  40d7a9:	48 c1 e2 04          	shl    rdx,0x4
  40d7ad:	48 01 d0             	add    rax,rdx
  40d7b0:	48 05 b4 c9 00 00    	add    rax,0xc9b4
  40d7b6:	8b 40 08             	mov    eax,DWORD PTR [rax+0x8]
  40d7b9:	41 01 c5             	add    r13d,eax
  40d7bc:	0f b7 d3             	movzx  edx,bx
  40d7bf:	48 8b 85 08 ff ff ff 	mov    rax,QWORD PTR [rbp-0xf8]
  40d7c6:	48 63 d2             	movsxd rdx,edx
  40d7c9:	48 c1 e2 04          	shl    rdx,0x4
  40d7cd:	48 01 d0             	add    rax,rdx
  40d7d0:	48 05 b8 c9 00 00    	add    rax,0xc9b8
  40d7d6:	8b 40 08             	mov    eax,DWORD PTR [rax+0x8]
  40d7d9:	41 01 c4             	add    r12d,eax
  40d7dc:	8b 45 cc             	mov    eax,DWORD PTR [rbp-0x34]
  40d7df:	48 98                	cdqe   
  40d7e1:	48 83 c0 07          	add    rax,0x7
  40d7e5:	48 8d 14 00          	lea    rdx,[rax+rax*1]
  40d7e9:	48 8b 45 88          	mov    rax,QWORD PTR [rbp-0x78]
  40d7ed:	48 01 d0             	add    rax,rdx
  40d7f0:	0f b7 18             	movzx  ebx,WORD PTR [rax]
  40d7f3:	0f b7 d3             	movzx  edx,bx
  40d7f6:	48 8b 85 08 ff ff ff 	mov    rax,QWORD PTR [rbp-0xf8]
  40d7fd:	48 63 d2             	movsxd rdx,edx
  40d800:	48 81 c2 9b 0c 00 00 	add    rdx,0xc9b
  40d807:	48 c1 e2 04          	shl    rdx,0x4
  40d80b:	48 01 d0             	add    rax,rdx
  40d80e:	8b 40 08             	mov    eax,DWORD PTR [rax+0x8]
  40d811:	41 01 c6             	add    r14d,eax
  40d814:	0f b7 d3             	movzx  edx,bx
  40d817:	48 8b 85 08 ff ff ff 	mov    rax,QWORD PTR [rbp-0xf8]
  40d81e:	48 63 d2             	movsxd rdx,edx
  40d821:	48 c1 e2 04          	shl    rdx,0x4
  40d825:	48 01 d0             	add    rax,rdx
  40d828:	48 05 b4 c9 00 00    	add    rax,0xc9b4
  40d82e:	8b 40 08             	mov    eax,DWORD PTR [rax+0x8]
  40d831:	41 01 c5             	add    r13d,eax
  40d834:	0f b7 d3             	movzx  edx,bx
  40d837:	48 8b 85 08 ff ff ff 	mov    rax,QWORD PTR [rbp-0xf8]
  40d83e:	48 63 d2             	movsxd rdx,edx
  40d841:	48 c1 e2 04          	shl    rdx,0x4
  40d845:	48 01 d0             	add    rax,rdx
  40d848:	48 05 b8 c9 00 00    	add    rax,0xc9b8
  40d84e:	8b 40 08             	mov    eax,DWORD PTR [rax+0x8]
  40d851:	41 01 c4             	add    r12d,eax
  40d854:	8b 45 cc             	mov    eax,DWORD PTR [rbp-0x34]
  40d857:	48 98                	cdqe   
  40d859:	48 83 c0 08          	add    rax,0x8
  40d85d:	48 8d 14 00          	lea    rdx,[rax+rax*1]
  40d861:	48 8b 45 88          	mov    rax,QWORD PTR [rbp-0x78]
  40d865:	48 01 d0             	add    rax,rdx
  40d868:	0f b7 18             	movzx  ebx,WORD PTR [rax]
  40d86b:	0f b7 d3             	movzx  edx,bx
  40d86e:	48 8b 85 08 ff ff ff 	mov    rax,QWORD PTR [rbp-0xf8]
  40d875:	48 63 d2             	movsxd rdx,edx
  40d878:	48 81 c2 9b 0c 00 00 	add    rdx,0xc9b
  40d87f:	48 c1 e2 04          	shl    rdx,0x4
  40d883:	48 01 d0             	add    rax,rdx
  40d886:	8b 40 08             	mov    eax,DWORD PTR [rax+0x8]
  40d889:	41 01 c6             	add    r14d,eax
  40d88c:	0f b7 d3             	movzx  edx,bx
  40d88f:	48 8b 85 08 ff ff ff 	mov    rax,QWORD PTR [rbp-0xf8]
  40d896:	48 63 d2             	movsxd rdx,edx
  40d899:	48 c1 e2 04          	shl    rdx,0x4
  40d89d:	48 01 d0             	add    rax,rdx
  40d8a0:	48 05 b4 c9 00 00    	add    rax,0xc9b4
  40d8a6:	8b 40 08             	mov    eax,DWORD PTR [rax+0x8]
  40d8a9:	41 01 c5             	add    r13d,eax
  40d8ac:	0f b7 d3             	movzx  edx,bx
  40d8af:	48 8b 85 08 ff ff ff 	mov    rax,QWORD PTR [rbp-0xf8]
  40d8b6:	48 63 d2             	movsxd rdx,edx
  40d8b9:	48 c1 e2 04          	shl    rdx,0x4
  40d8bd:	48 01 d0             	add    rax,rdx
  40d8c0:	48 05 b8 c9 00 00    	add    rax,0xc9b8
  40d8c6:	8b 40 08             	mov    eax,DWORD PTR [rax+0x8]
  40d8c9:	41 01 c4             	add    r12d,eax
  40d8cc:	8b 45 cc             	mov    eax,DWORD PTR [rbp-0x34]
  40d8cf:	48 98                	cdqe   
  40d8d1:	48 83 c0 09          	add    rax,0x9
  40d8d5:	48 8d 14 00          	lea    rdx,[rax+rax*1]
  40d8d9:	48 8b 45 88          	mov    rax,QWORD PTR [rbp-0x78]
  40d8dd:	48 01 d0             	add    rax,rdx
  40d8e0:	0f b7 18             	movzx  ebx,WORD PTR [rax]
  40d8e3:	0f b7 d3             	movzx  edx,bx
  40d8e6:	48 8b 85 08 ff ff ff 	mov    rax,QWORD PTR [rbp-0xf8]
  40d8ed:	48 63 d2             	movsxd rdx,edx
  40d8f0:	48 81 c2 9b 0c 00 00 	add    rdx,0xc9b
  40d8f7:	48 c1 e2 04          	shl    rdx,0x4
  40d8fb:	48 01 d0             	add    rax,rdx
  40d8fe:	8b 40 08             	mov    eax,DWORD PTR [rax+0x8]
  40d901:	41 01 c6             	add    r14d,eax
  40d904:	0f b7 d3             	movzx  edx,bx
  40d907:	48 8b 85 08 ff ff ff 	mov    rax,QWORD PTR [rbp-0xf8]
  40d90e:	48 63 d2             	movsxd rdx,edx
  40d911:	48 c1 e2 04          	shl    rdx,0x4
  40d915:	48 01 d0             	add    rax,rdx
  40d918:	48 05 b4 c9 00 00    	add    rax,0xc9b4
  40d91e:	8b 40 08             	mov    eax,DWORD PTR [rax+0x8]
  40d921:	41 01 c5             	add    r13d,eax
  40d924:	0f b7 d3             	movzx  edx,bx
  40d927:	48 8b 85 08 ff ff ff 	mov    rax,QWORD PTR [rbp-0xf8]
  40d92e:	48 63 d2             	movsxd rdx,edx
  40d931:	48 c1 e2 04          	shl    rdx,0x4
  40d935:	48 01 d0             	add    rax,rdx
  40d938:	48 05 b8 c9 00 00    	add    rax,0xc9b8
  40d93e:	8b 40 08             	mov    eax,DWORD PTR [rax+0x8]
  40d941:	41 01 c4             	add    r12d,eax
  40d944:	8b 45 cc             	mov    eax,DWORD PTR [rbp-0x34]
  40d947:	48 98                	cdqe   
  40d949:	48 83 c0 0a          	add    rax,0xa
  40d94d:	48 8d 14 00          	lea    rdx,[rax+rax*1]
  40d951:	48 8b 45 88          	mov    rax,QWORD PTR [rbp-0x78]
  40d955:	48 01 d0             	add    rax,rdx
  40d958:	0f b7 18             	movzx  ebx,WORD PTR [rax]
  40d95b:	0f b7 d3             	movzx  edx,bx
  40d95e:	48 8b 85 08 ff ff ff 	mov    rax,QWORD PTR [rbp-0xf8]
  40d965:	48 63 d2             	movsxd rdx,edx
  40d968:	48 81 c2 9b 0c 00 00 	add    rdx,0xc9b
  40d96f:	48 c1 e2 04          	shl    rdx,0x4
  40d973:	48 01 d0             	add    rax,rdx
  40d976:	8b 40 08             	mov    eax,DWORD PTR [rax+0x8]
  40d979:	41 01 c6             	add    r14d,eax
  40d97c:	0f b7 d3             	movzx  edx,bx
  40d97f:	48 8b 85 08 ff ff ff 	mov    rax,QWORD PTR [rbp-0xf8]
  40d986:	48 63 d2             	movsxd rdx,edx
  40d989:	48 c1 e2 04          	shl    rdx,0x4
  40d98d:	48 01 d0             	add    rax,rdx
  40d990:	48 05 b4 c9 00 00    	add    rax,0xc9b4
  40d996:	8b 40 08             	mov    eax,DWORD PTR [rax+0x8]
  40d999:	41 01 c5             	add    r13d,eax
  40d99c:	0f b7 d3             	movzx  edx,bx
  40d99f:	48 8b 85 08 ff ff ff 	mov    rax,QWORD PTR [rbp-0xf8]
  40d9a6:	48 63 d2             	movsxd rdx,edx
  40d9a9:	48 c1 e2 04          	shl    rdx,0x4
  40d9ad:	48 01 d0             	add    rax,rdx
  40d9b0:	48 05 b8 c9 00 00    	add    rax,0xc9b8
  40d9b6:	8b 40 08             	mov    eax,DWORD PTR [rax+0x8]
  40d9b9:	41 01 c4             	add    r12d,eax
  40d9bc:	8b 45 cc             	mov    eax,DWORD PTR [rbp-0x34]
  40d9bf:	48 98                	cdqe   
  40d9c1:	48 83 c0 0b          	add    rax,0xb
  40d9c5:	48 8d 14 00          	lea    rdx,[rax+rax*1]
  40d9c9:	48 8b 45 88          	mov    rax,QWORD PTR [rbp-0x78]
  40d9cd:	48 01 d0             	add    rax,rdx
  40d9d0:	0f b7 18             	movzx  ebx,WORD PTR [rax]
  40d9d3:	0f b7 d3             	movzx  edx,bx
  40d9d6:	48 8b 85 08 ff ff ff 	mov    rax,QWORD PTR [rbp-0xf8]
  40d9dd:	48 63 d2             	movsxd rdx,edx
  40d9e0:	48 81 c2 9b 0c 00 00 	add    rdx,0xc9b
  40d9e7:	48 c1 e2 04          	shl    rdx,0x4
  40d9eb:	48 01 d0             	add    rax,rdx
  40d9ee:	8b 40 08             	mov    eax,DWORD PTR [rax+0x8]
  40d9f1:	41 01 c6             	add    r14d,eax
  40d9f4:	0f b7 d3             	movzx  edx,bx
  40d9f7:	48 8b 85 08 ff ff ff 	mov    rax,QWORD PTR [rbp-0xf8]
  40d9fe:	48 63 d2             	movsxd rdx,edx
  40da01:	48 c1 e2 04          	shl    rdx,0x4
  40da05:	48 01 d0             	add    rax,rdx
  40da08:	48 05 b4 c9 00 00    	add    rax,0xc9b4
  40da0e:	8b 40 08             	mov    eax,DWORD PTR [rax+0x8]
  40da11:	41 01 c5             	add    r13d,eax
  40da14:	0f b7 d3             	movzx  edx,bx
  40da17:	48 8b 85 08 ff ff ff 	mov    rax,QWORD PTR [rbp-0xf8]
  40da1e:	48 63 d2             	movsxd rdx,edx
  40da21:	48 c1 e2 04          	shl    rdx,0x4
  40da25:	48 01 d0             	add    rax,rdx
  40da28:	48 05 b8 c9 00 00    	add    rax,0xc9b8
  40da2e:	8b 40 08             	mov    eax,DWORD PTR [rax+0x8]
  40da31:	41 01 c4             	add    r12d,eax
  40da34:	8b 45 cc             	mov    eax,DWORD PTR [rbp-0x34]
  40da37:	48 98                	cdqe   
  40da39:	48 83 c0 0c          	add    rax,0xc
  40da3d:	48 8d 14 00          	lea    rdx,[rax+rax*1]
  40da41:	48 8b 45 88          	mov    rax,QWORD PTR [rbp-0x78]
  40da45:	48 01 d0             	add    rax,rdx
  40da48:	0f b7 18             	movzx  ebx,WORD PTR [rax]
  40da4b:	0f b7 d3             	movzx  edx,bx
  40da4e:	48 8b 85 08 ff ff ff 	mov    rax,QWORD PTR [rbp-0xf8]
  40da55:	48 63 d2             	movsxd rdx,edx
  40da58:	48 81 c2 9b 0c 00 00 	add    rdx,0xc9b
  40da5f:	48 c1 e2 04          	shl    rdx,0x4
  40da63:	48 01 d0             	add    rax,rdx
  40da66:	8b 40 08             	mov    eax,DWORD PTR [rax+0x8]
  40da69:	41 01 c6             	add    r14d,eax
  40da6c:	0f b7 d3             	movzx  edx,bx
  40da6f:	48 8b 85 08 ff ff ff 	mov    rax,QWORD PTR [rbp-0xf8]
  40da76:	48 63 d2             	movsxd rdx,edx
  40da79:	48 c1 e2 04          	shl    rdx,0x4
  40da7d:	48 01 d0             	add    rax,rdx
  40da80:	48 05 b4 c9 00 00    	add    rax,0xc9b4
  40da86:	8b 40 08             	mov    eax,DWORD PTR [rax+0x8]
  40da89:	41 01 c5             	add    r13d,eax
  40da8c:	0f b7 d3             	movzx  edx,bx
  40da8f:	48 8b 85 08 ff ff ff 	mov    rax,QWORD PTR [rbp-0xf8]
  40da96:	48 63 d2             	movsxd rdx,edx
  40da99:	48 c1 e2 04          	shl    rdx,0x4
  40da9d:	48 01 d0             	add    rax,rdx
  40daa0:	48 05 b8 c9 00 00    	add    rax,0xc9b8
  40daa6:	8b 40 08             	mov    eax,DWORD PTR [rax+0x8]
  40daa9:	41 01 c4             	add    r12d,eax
  40daac:	8b 45 cc             	mov    eax,DWORD PTR [rbp-0x34]
  40daaf:	48 98                	cdqe   
  40dab1:	48 83 c0 0d          	add    rax,0xd
  40dab5:	48 8d 14 00          	lea    rdx,[rax+rax*1]
  40dab9:	48 8b 45 88          	mov    rax,QWORD PTR [rbp-0x78]
  40dabd:	48 01 d0             	add    rax,rdx
  40dac0:	0f b7 18             	movzx  ebx,WORD PTR [rax]
  40dac3:	0f b7 d3             	movzx  edx,bx
  40dac6:	48 8b 85 08 ff ff ff 	mov    rax,QWORD PTR [rbp-0xf8]
  40dacd:	48 63 d2             	movsxd rdx,edx
  40dad0:	48 81 c2 9b 0c 00 00 	add    rdx,0xc9b
  40dad7:	48 c1 e2 04          	shl    rdx,0x4
  40dadb:	48 01 d0             	add    rax,rdx
  40dade:	8b 40 08             	mov    eax,DWORD PTR [rax+0x8]
  40dae1:	41 01 c6             	add    r14d,eax
  40dae4:	0f b7 d3             	movzx  edx,bx
  40dae7:	48 8b 85 08 ff ff ff 	mov    rax,QWORD PTR [rbp-0xf8]
  40daee:	48 63 d2             	movsxd rdx,edx
  40daf1:	48 c1 e2 04          	shl    rdx,0x4
  40daf5:	48 01 d0             	add    rax,rdx
  40daf8:	48 05 b4 c9 00 00    	add    rax,0xc9b4
  40dafe:	8b 40 08             	mov    eax,DWORD PTR [rax+0x8]
  40db01:	41 01 c5             	add    r13d,eax
  40db04:	0f b7 d3             	movzx  edx,bx
  40db07:	48 8b 85 08 ff ff ff 	mov    rax,QWORD PTR [rbp-0xf8]
  40db0e:	48 63 d2             	movsxd rdx,edx
  40db11:	48 c1 e2 04          	shl    rdx,0x4
  40db15:	48 01 d0             	add    rax,rdx
  40db18:	48 05 b8 c9 00 00    	add    rax,0xc9b8
  40db1e:	8b 40 08             	mov    eax,DWORD PTR [rax+0x8]
  40db21:	41 01 c4             	add    r12d,eax
  40db24:	8b 45 cc             	mov    eax,DWORD PTR [rbp-0x34]
  40db27:	48 98                	cdqe   
  40db29:	48 83 c0 0e          	add    rax,0xe
  40db2d:	48 8d 14 00          	lea    rdx,[rax+rax*1]
  40db31:	48 8b 45 88          	mov    rax,QWORD PTR [rbp-0x78]
  40db35:	48 01 d0             	add    rax,rdx
  40db38:	0f b7 18             	movzx  ebx,WORD PTR [rax]
  40db3b:	0f b7 d3             	movzx  edx,bx
  40db3e:	48 8b 85 08 ff ff ff 	mov    rax,QWORD PTR [rbp-0xf8]
  40db45:	48 63 d2             	movsxd rdx,edx
  40db48:	48 81 c2 9b 0c 00 00 	add    rdx,0xc9b
  40db4f:	48 c1 e2 04          	shl    rdx,0x4
  40db53:	48 01 d0             	add    rax,rdx
  40db56:	8b 40 08             	mov    eax,DWORD PTR [rax+0x8]
  40db59:	41 01 c6             	add    r14d,eax
  40db5c:	0f b7 d3             	movzx  edx,bx
  40db5f:	48 8b 85 08 ff ff ff 	mov    rax,QWORD PTR [rbp-0xf8]
  40db66:	48 63 d2             	movsxd rdx,edx
  40db69:	48 c1 e2 04          	shl    rdx,0x4
  40db6d:	48 01 d0             	add    rax,rdx
  40db70:	48 05 b4 c9 00 00    	add    rax,0xc9b4
  40db76:	8b 40 08             	mov    eax,DWORD PTR [rax+0x8]
  40db79:	41 01 c5             	add    r13d,eax
  40db7c:	0f b7 d3             	movzx  edx,bx
  40db7f:	48 8b 85 08 ff ff ff 	mov    rax,QWORD PTR [rbp-0xf8]
  40db86:	48 63 d2             	movsxd rdx,edx
  40db89:	48 c1 e2 04          	shl    rdx,0x4
  40db8d:	48 01 d0             	add    rax,rdx
  40db90:	48 05 b8 c9 00 00    	add    rax,0xc9b8
  40db96:	8b 40 08             	mov    eax,DWORD PTR [rax+0x8]
  40db99:	41 01 c4             	add    r12d,eax
  40db9c:	8b 45 cc             	mov    eax,DWORD PTR [rbp-0x34]
  40db9f:	48 98                	cdqe   
  40dba1:	48 83 c0 0f          	add    rax,0xf
  40dba5:	48 8d 14 00          	lea    rdx,[rax+rax*1]
  40dba9:	48 8b 45 88          	mov    rax,QWORD PTR [rbp-0x78]
  40dbad:	48 01 d0             	add    rax,rdx
  40dbb0:	0f b7 18             	movzx  ebx,WORD PTR [rax]
  40dbb3:	0f b7 d3             	movzx  edx,bx
  40dbb6:	48 8b 85 08 ff ff ff 	mov    rax,QWORD PTR [rbp-0xf8]
  40dbbd:	48 63 d2             	movsxd rdx,edx
  40dbc0:	48 81 c2 9b 0c 00 00 	add    rdx,0xc9b
  40dbc7:	48 c1 e2 04          	shl    rdx,0x4
  40dbcb:	48 01 d0             	add    rax,rdx
  40dbce:	8b 40 08             	mov    eax,DWORD PTR [rax+0x8]
  40dbd1:	41 01 c6             	add    r14d,eax
  40dbd4:	0f b7 d3             	movzx  edx,bx
  40dbd7:	48 8b 85 08 ff ff ff 	mov    rax,QWORD PTR [rbp-0xf8]
  40dbde:	48 63 d2             	movsxd rdx,edx
  40dbe1:	48 c1 e2 04          	shl    rdx,0x4
  40dbe5:	48 01 d0             	add    rax,rdx
  40dbe8:	48 05 b4 c9 00 00    	add    rax,0xc9b4
  40dbee:	8b 40 08             	mov    eax,DWORD PTR [rax+0x8]
  40dbf1:	41 01 c5             	add    r13d,eax
  40dbf4:	0f b7 d3             	movzx  edx,bx
  40dbf7:	48 8b 85 08 ff ff ff 	mov    rax,QWORD PTR [rbp-0xf8]
  40dbfe:	48 63 d2             	movsxd rdx,edx
  40dc01:	48 c1 e2 04          	shl    rdx,0x4
  40dc05:	48 01 d0             	add    rax,rdx
  40dc08:	48 05 b8 c9 00 00    	add    rax,0xc9b8
  40dc0e:	8b 40 08             	mov    eax,DWORD PTR [rax+0x8]
  40dc11:	41 01 c4             	add    r12d,eax
  40dc14:	8b 45 cc             	mov    eax,DWORD PTR [rbp-0x34]
  40dc17:	48 98                	cdqe   
  40dc19:	48 83 c0 10          	add    rax,0x10
  40dc1d:	48 8d 14 00          	lea    rdx,[rax+rax*1]
  40dc21:	48 8b 45 88          	mov    rax,QWORD PTR [rbp-0x78]
  40dc25:	48 01 d0             	add    rax,rdx
  40dc28:	0f b7 18             	movzx  ebx,WORD PTR [rax]
  40dc2b:	0f b7 d3             	movzx  edx,bx
  40dc2e:	48 8b 85 08 ff ff ff 	mov    rax,QWORD PTR [rbp-0xf8]
  40dc35:	48 63 d2             	movsxd rdx,edx
  40dc38:	48 81 c2 9b 0c 00 00 	add    rdx,0xc9b
  40dc3f:	48 c1 e2 04          	shl    rdx,0x4
  40dc43:	48 01 d0             	add    rax,rdx
  40dc46:	8b 40 08             	mov    eax,DWORD PTR [rax+0x8]
  40dc49:	41 01 c6             	add    r14d,eax
  40dc4c:	0f b7 d3             	movzx  edx,bx
  40dc4f:	48 8b 85 08 ff ff ff 	mov    rax,QWORD PTR [rbp-0xf8]
  40dc56:	48 63 d2             	movsxd rdx,edx
  40dc59:	48 c1 e2 04          	shl    rdx,0x4
  40dc5d:	48 01 d0             	add    rax,rdx
  40dc60:	48 05 b4 c9 00 00    	add    rax,0xc9b4
  40dc66:	8b 40 08             	mov    eax,DWORD PTR [rax+0x8]
  40dc69:	41 01 c5             	add    r13d,eax
  40dc6c:	0f b7 d3             	movzx  edx,bx
  40dc6f:	48 8b 85 08 ff ff ff 	mov    rax,QWORD PTR [rbp-0xf8]
  40dc76:	48 63 d2             	movsxd rdx,edx
  40dc79:	48 c1 e2 04          	shl    rdx,0x4
  40dc7d:	48 01 d0             	add    rax,rdx
  40dc80:	48 05 b8 c9 00 00    	add    rax,0xc9b8
  40dc86:	8b 40 08             	mov    eax,DWORD PTR [rax+0x8]
  40dc89:	41 01 c4             	add    r12d,eax
  40dc8c:	8b 45 cc             	mov    eax,DWORD PTR [rbp-0x34]
  40dc8f:	48 98                	cdqe   
  40dc91:	48 83 c0 11          	add    rax,0x11
  40dc95:	48 8d 14 00          	lea    rdx,[rax+rax*1]
  40dc99:	48 8b 45 88          	mov    rax,QWORD PTR [rbp-0x78]
  40dc9d:	48 01 d0             	add    rax,rdx
  40dca0:	0f b7 18             	movzx  ebx,WORD PTR [rax]
  40dca3:	0f b7 d3             	movzx  edx,bx
  40dca6:	48 8b 85 08 ff ff ff 	mov    rax,QWORD PTR [rbp-0xf8]
  40dcad:	48 63 d2             	movsxd rdx,edx
  40dcb0:	48 81 c2 9b 0c 00 00 	add    rdx,0xc9b
  40dcb7:	48 c1 e2 04          	shl    rdx,0x4
  40dcbb:	48 01 d0             	add    rax,rdx
  40dcbe:	8b 40 08             	mov    eax,DWORD PTR [rax+0x8]
  40dcc1:	41 01 c6             	add    r14d,eax
  40dcc4:	0f b7 d3             	movzx  edx,bx
  40dcc7:	48 8b 85 08 ff ff ff 	mov    rax,QWORD PTR [rbp-0xf8]
  40dcce:	48 63 d2             	movsxd rdx,edx
  40dcd1:	48 c1 e2 04          	shl    rdx,0x4
  40dcd5:	48 01 d0             	add    rax,rdx
  40dcd8:	48 05 b4 c9 00 00    	add    rax,0xc9b4
  40dcde:	8b 40 08             	mov    eax,DWORD PTR [rax+0x8]
  40dce1:	41 01 c5             	add    r13d,eax
  40dce4:	0f b7 d3             	movzx  edx,bx
  40dce7:	48 8b 85 08 ff ff ff 	mov    rax,QWORD PTR [rbp-0xf8]
  40dcee:	48 63 d2             	movsxd rdx,edx
  40dcf1:	48 c1 e2 04          	shl    rdx,0x4
  40dcf5:	48 01 d0             	add    rax,rdx
  40dcf8:	48 05 b8 c9 00 00    	add    rax,0xc9b8
  40dcfe:	8b 40 08             	mov    eax,DWORD PTR [rax+0x8]
  40dd01:	41 01 c4             	add    r12d,eax
  40dd04:	8b 45 cc             	mov    eax,DWORD PTR [rbp-0x34]
  40dd07:	48 98                	cdqe   
  40dd09:	48 83 c0 12          	add    rax,0x12
  40dd0d:	48 8d 14 00          	lea    rdx,[rax+rax*1]
  40dd11:	48 8b 45 88          	mov    rax,QWORD PTR [rbp-0x78]
  40dd15:	48 01 d0             	add    rax,rdx
  40dd18:	0f b7 18             	movzx  ebx,WORD PTR [rax]
  40dd1b:	0f b7 d3             	movzx  edx,bx
  40dd1e:	48 8b 85 08 ff ff ff 	mov    rax,QWORD PTR [rbp-0xf8]
  40dd25:	48 63 d2             	movsxd rdx,edx
  40dd28:	48 81 c2 9b 0c 00 00 	add    rdx,0xc9b
  40dd2f:	48 c1 e2 04          	shl    rdx,0x4
  40dd33:	48 01 d0             	add    rax,rdx
  40dd36:	8b 40 08             	mov    eax,DWORD PTR [rax+0x8]
  40dd39:	41 01 c6             	add    r14d,eax
  40dd3c:	0f b7 d3             	movzx  edx,bx
  40dd3f:	48 8b 85 08 ff ff ff 	mov    rax,QWORD PTR [rbp-0xf8]
  40dd46:	48 63 d2             	movsxd rdx,edx
  40dd49:	48 c1 e2 04          	shl    rdx,0x4
  40dd4d:	48 01 d0             	add    rax,rdx
  40dd50:	48 05 b4 c9 00 00    	add    rax,0xc9b4
  40dd56:	8b 40 08             	mov    eax,DWORD PTR [rax+0x8]
  40dd59:	41 01 c5             	add    r13d,eax
  40dd5c:	0f b7 d3             	movzx  edx,bx
  40dd5f:	48 8b 85 08 ff ff ff 	mov    rax,QWORD PTR [rbp-0xf8]
  40dd66:	48 63 d2             	movsxd rdx,edx
  40dd69:	48 c1 e2 04          	shl    rdx,0x4
  40dd6d:	48 01 d0             	add    rax,rdx
  40dd70:	48 05 b8 c9 00 00    	add    rax,0xc9b8
  40dd76:	8b 40 08             	mov    eax,DWORD PTR [rax+0x8]
  40dd79:	41 01 c4             	add    r12d,eax
  40dd7c:	8b 45 cc             	mov    eax,DWORD PTR [rbp-0x34]
  40dd7f:	48 98                	cdqe   
  40dd81:	48 83 c0 13          	add    rax,0x13
  40dd85:	48 8d 14 00          	lea    rdx,[rax+rax*1]
  40dd89:	48 8b 45 88          	mov    rax,QWORD PTR [rbp-0x78]
  40dd8d:	48 01 d0             	add    rax,rdx
  40dd90:	0f b7 18             	movzx  ebx,WORD PTR [rax]
  40dd93:	0f b7 d3             	movzx  edx,bx
  40dd96:	48 8b 85 08 ff ff ff 	mov    rax,QWORD PTR [rbp-0xf8]
  40dd9d:	48 63 d2             	movsxd rdx,edx
  40dda0:	48 81 c2 9b 0c 00 00 	add    rdx,0xc9b
  40dda7:	48 c1 e2 04          	shl    rdx,0x4
  40ddab:	48 01 d0             	add    rax,rdx
  40ddae:	8b 40 08             	mov    eax,DWORD PTR [rax+0x8]
  40ddb1:	41 01 c6             	add    r14d,eax
  40ddb4:	0f b7 d3             	movzx  edx,bx
  40ddb7:	48 8b 85 08 ff ff ff 	mov    rax,QWORD PTR [rbp-0xf8]
  40ddbe:	48 63 d2             	movsxd rdx,edx
  40ddc1:	48 c1 e2 04          	shl    rdx,0x4
  40ddc5:	48 01 d0             	add    rax,rdx
  40ddc8:	48 05 b4 c9 00 00    	add    rax,0xc9b4
  40ddce:	8b 40 08             	mov    eax,DWORD PTR [rax+0x8]
  40ddd1:	41 01 c5             	add    r13d,eax
  40ddd4:	0f b7 d3             	movzx  edx,bx
  40ddd7:	48 8b 85 08 ff ff ff 	mov    rax,QWORD PTR [rbp-0xf8]
  40ddde:	48 63 d2             	movsxd rdx,edx
  40dde1:	48 c1 e2 04          	shl    rdx,0x4
  40dde5:	48 01 d0             	add    rax,rdx
  40dde8:	48 05 b8 c9 00 00    	add    rax,0xc9b8
  40ddee:	8b 40 08             	mov    eax,DWORD PTR [rax+0x8]
  40ddf1:	41 01 c4             	add    r12d,eax
  40ddf4:	8b 45 cc             	mov    eax,DWORD PTR [rbp-0x34]
  40ddf7:	48 98                	cdqe   
  40ddf9:	48 83 c0 14          	add    rax,0x14
  40ddfd:	48 8d 14 00          	lea    rdx,[rax+rax*1]
  40de01:	48 8b 45 88          	mov    rax,QWORD PTR [rbp-0x78]
  40de05:	48 01 d0             	add    rax,rdx
  40de08:	0f b7 18             	movzx  ebx,WORD PTR [rax]
  40de0b:	0f b7 d3             	movzx  edx,bx
  40de0e:	48 8b 85 08 ff ff ff 	mov    rax,QWORD PTR [rbp-0xf8]
  40de15:	48 63 d2             	movsxd rdx,edx
  40de18:	48 81 c2 9b 0c 00 00 	add    rdx,0xc9b
  40de1f:	48 c1 e2 04          	shl    rdx,0x4
  40de23:	48 01 d0             	add    rax,rdx
  40de26:	8b 40 08             	mov    eax,DWORD PTR [rax+0x8]
  40de29:	41 01 c6             	add    r14d,eax
  40de2c:	0f b7 d3             	movzx  edx,bx
  40de2f:	48 8b 85 08 ff ff ff 	mov    rax,QWORD PTR [rbp-0xf8]
  40de36:	48 63 d2             	movsxd rdx,edx
  40de39:	48 c1 e2 04          	shl    rdx,0x4
  40de3d:	48 01 d0             	add    rax,rdx
  40de40:	48 05 b4 c9 00 00    	add    rax,0xc9b4
  40de46:	8b 40 08             	mov    eax,DWORD PTR [rax+0x8]
  40de49:	41 01 c5             	add    r13d,eax
  40de4c:	0f b7 d3             	movzx  edx,bx
  40de4f:	48 8b 85 08 ff ff ff 	mov    rax,QWORD PTR [rbp-0xf8]
  40de56:	48 63 d2             	movsxd rdx,edx
  40de59:	48 c1 e2 04          	shl    rdx,0x4
  40de5d:	48 01 d0             	add    rax,rdx
  40de60:	48 05 b8 c9 00 00    	add    rax,0xc9b8
  40de66:	8b 40 08             	mov    eax,DWORD PTR [rax+0x8]
  40de69:	41 01 c4             	add    r12d,eax
  40de6c:	8b 45 cc             	mov    eax,DWORD PTR [rbp-0x34]
  40de6f:	48 98                	cdqe   
  40de71:	48 83 c0 15          	add    rax,0x15
  40de75:	48 8d 14 00          	lea    rdx,[rax+rax*1]
  40de79:	48 8b 45 88          	mov    rax,QWORD PTR [rbp-0x78]
  40de7d:	48 01 d0             	add    rax,rdx
  40de80:	0f b7 18             	movzx  ebx,WORD PTR [rax]
  40de83:	0f b7 d3             	movzx  edx,bx
  40de86:	48 8b 85 08 ff ff ff 	mov    rax,QWORD PTR [rbp-0xf8]
  40de8d:	48 63 d2             	movsxd rdx,edx
  40de90:	48 81 c2 9b 0c 00 00 	add    rdx,0xc9b
  40de97:	48 c1 e2 04          	shl    rdx,0x4
  40de9b:	48 01 d0             	add    rax,rdx
  40de9e:	8b 40 08             	mov    eax,DWORD PTR [rax+0x8]
  40dea1:	41 01 c6             	add    r14d,eax
  40dea4:	0f b7 d3             	movzx  edx,bx
  40dea7:	48 8b 85 08 ff ff ff 	mov    rax,QWORD PTR [rbp-0xf8]
  40deae:	48 63 d2             	movsxd rdx,edx
  40deb1:	48 c1 e2 04          	shl    rdx,0x4
  40deb5:	48 01 d0             	add    rax,rdx
  40deb8:	48 05 b4 c9 00 00    	add    rax,0xc9b4
  40debe:	8b 40 08             	mov    eax,DWORD PTR [rax+0x8]
  40dec1:	41 01 c5             	add    r13d,eax
  40dec4:	0f b7 d3             	movzx  edx,bx
  40dec7:	48 8b 85 08 ff ff ff 	mov    rax,QWORD PTR [rbp-0xf8]
  40dece:	48 63 d2             	movsxd rdx,edx
  40ded1:	48 c1 e2 04          	shl    rdx,0x4
  40ded5:	48 01 d0             	add    rax,rdx
  40ded8:	48 05 b8 c9 00 00    	add    rax,0xc9b8
  40dede:	8b 40 08             	mov    eax,DWORD PTR [rax+0x8]
  40dee1:	41 01 c4             	add    r12d,eax
  40dee4:	8b 45 cc             	mov    eax,DWORD PTR [rbp-0x34]
  40dee7:	48 98                	cdqe   
  40dee9:	48 83 c0 16          	add    rax,0x16
  40deed:	48 8d 14 00          	lea    rdx,[rax+rax*1]
  40def1:	48 8b 45 88          	mov    rax,QWORD PTR [rbp-0x78]
  40def5:	48 01 d0             	add    rax,rdx
  40def8:	0f b7 18             	movzx  ebx,WORD PTR [rax]
  40defb:	0f b7 d3             	movzx  edx,bx
  40defe:	48 8b 85 08 ff ff ff 	mov    rax,QWORD PTR [rbp-0xf8]
  40df05:	48 63 d2             	movsxd rdx,edx
  40df08:	48 81 c2 9b 0c 00 00 	add    rdx,0xc9b
  40df0f:	48 c1 e2 04          	shl    rdx,0x4
  40df13:	48 01 d0             	add    rax,rdx
  40df16:	8b 40 08             	mov    eax,DWORD PTR [rax+0x8]
  40df19:	41 01 c6             	add    r14d,eax
  40df1c:	0f b7 d3             	movzx  edx,bx
  40df1f:	48 8b 85 08 ff ff ff 	mov    rax,QWORD PTR [rbp-0xf8]
  40df26:	48 63 d2             	movsxd rdx,edx
  40df29:	48 c1 e2 04          	shl    rdx,0x4
  40df2d:	48 01 d0             	add    rax,rdx
  40df30:	48 05 b4 c9 00 00    	add    rax,0xc9b4
  40df36:	8b 40 08             	mov    eax,DWORD PTR [rax+0x8]
  40df39:	41 01 c5             	add    r13d,eax
  40df3c:	0f b7 d3             	movzx  edx,bx
  40df3f:	48 8b 85 08 ff ff ff 	mov    rax,QWORD PTR [rbp-0xf8]
  40df46:	48 63 d2             	movsxd rdx,edx
  40df49:	48 c1 e2 04          	shl    rdx,0x4
  40df4d:	48 01 d0             	add    rax,rdx
  40df50:	48 05 b8 c9 00 00    	add    rax,0xc9b8
  40df56:	8b 40 08             	mov    eax,DWORD PTR [rax+0x8]
  40df59:	41 01 c4             	add    r12d,eax
  40df5c:	8b 45 cc             	mov    eax,DWORD PTR [rbp-0x34]
  40df5f:	48 98                	cdqe   
  40df61:	48 83 c0 17          	add    rax,0x17
  40df65:	48 8d 14 00          	lea    rdx,[rax+rax*1]
  40df69:	48 8b 45 88          	mov    rax,QWORD PTR [rbp-0x78]
  40df6d:	48 01 d0             	add    rax,rdx
  40df70:	0f b7 18             	movzx  ebx,WORD PTR [rax]
  40df73:	0f b7 d3             	movzx  edx,bx
  40df76:	48 8b 85 08 ff ff ff 	mov    rax,QWORD PTR [rbp-0xf8]
  40df7d:	48 63 d2             	movsxd rdx,edx
  40df80:	48 81 c2 9b 0c 00 00 	add    rdx,0xc9b
  40df87:	48 c1 e2 04          	shl    rdx,0x4
  40df8b:	48 01 d0             	add    rax,rdx
  40df8e:	8b 40 08             	mov    eax,DWORD PTR [rax+0x8]
  40df91:	41 01 c6             	add    r14d,eax
  40df94:	0f b7 d3             	movzx  edx,bx
  40df97:	48 8b 85 08 ff ff ff 	mov    rax,QWORD PTR [rbp-0xf8]
  40df9e:	48 63 d2             	movsxd rdx,edx
  40dfa1:	48 c1 e2 04          	shl    rdx,0x4
  40dfa5:	48 01 d0             	add    rax,rdx
  40dfa8:	48 05 b4 c9 00 00    	add    rax,0xc9b4
  40dfae:	8b 40 08             	mov    eax,DWORD PTR [rax+0x8]
  40dfb1:	41 01 c5             	add    r13d,eax
  40dfb4:	0f b7 d3             	movzx  edx,bx
  40dfb7:	48 8b 85 08 ff ff ff 	mov    rax,QWORD PTR [rbp-0xf8]
  40dfbe:	48 63 d2             	movsxd rdx,edx
  40dfc1:	48 c1 e2 04          	shl    rdx,0x4
  40dfc5:	48 01 d0             	add    rax,rdx
  40dfc8:	48 05 b8 c9 00 00    	add    rax,0xc9b8
  40dfce:	8b 40 08             	mov    eax,DWORD PTR [rax+0x8]
  40dfd1:	41 01 c4             	add    r12d,eax
  40dfd4:	8b 45 cc             	mov    eax,DWORD PTR [rbp-0x34]
  40dfd7:	48 98                	cdqe   
  40dfd9:	48 83 c0 18          	add    rax,0x18
  40dfdd:	48 8d 14 00          	lea    rdx,[rax+rax*1]
  40dfe1:	48 8b 45 88          	mov    rax,QWORD PTR [rbp-0x78]
  40dfe5:	48 01 d0             	add    rax,rdx
  40dfe8:	0f b7 18             	movzx  ebx,WORD PTR [rax]
  40dfeb:	0f b7 d3             	movzx  edx,bx
  40dfee:	48 8b 85 08 ff ff ff 	mov    rax,QWORD PTR [rbp-0xf8]
  40dff5:	48 63 d2             	movsxd rdx,edx
  40dff8:	48 81 c2 9b 0c 00 00 	add    rdx,0xc9b
  40dfff:	48 c1 e2 04          	shl    rdx,0x4
  40e003:	48 01 d0             	add    rax,rdx
  40e006:	8b 40 08             	mov    eax,DWORD PTR [rax+0x8]
  40e009:	41 01 c6             	add    r14d,eax
  40e00c:	0f b7 d3             	movzx  edx,bx
  40e00f:	48 8b 85 08 ff ff ff 	mov    rax,QWORD PTR [rbp-0xf8]
  40e016:	48 63 d2             	movsxd rdx,edx
  40e019:	48 c1 e2 04          	shl    rdx,0x4
  40e01d:	48 01 d0             	add    rax,rdx
  40e020:	48 05 b4 c9 00 00    	add    rax,0xc9b4
  40e026:	8b 40 08             	mov    eax,DWORD PTR [rax+0x8]
  40e029:	41 01 c5             	add    r13d,eax
  40e02c:	0f b7 d3             	movzx  edx,bx
  40e02f:	48 8b 85 08 ff ff ff 	mov    rax,QWORD PTR [rbp-0xf8]
  40e036:	48 63 d2             	movsxd rdx,edx
  40e039:	48 c1 e2 04          	shl    rdx,0x4
  40e03d:	48 01 d0             	add    rax,rdx
  40e040:	48 05 b8 c9 00 00    	add    rax,0xc9b8
  40e046:	8b 40 08             	mov    eax,DWORD PTR [rax+0x8]
  40e049:	41 01 c4             	add    r12d,eax
  40e04c:	8b 45 cc             	mov    eax,DWORD PTR [rbp-0x34]
  40e04f:	48 98                	cdqe   
  40e051:	48 83 c0 19          	add    rax,0x19
  40e055:	48 8d 14 00          	lea    rdx,[rax+rax*1]
  40e059:	48 8b 45 88          	mov    rax,QWORD PTR [rbp-0x78]
  40e05d:	48 01 d0             	add    rax,rdx
  40e060:	0f b7 18             	movzx  ebx,WORD PTR [rax]
  40e063:	0f b7 d3             	movzx  edx,bx
  40e066:	48 8b 85 08 ff ff ff 	mov    rax,QWORD PTR [rbp-0xf8]
  40e06d:	48 63 d2             	movsxd rdx,edx
  40e070:	48 81 c2 9b 0c 00 00 	add    rdx,0xc9b
  40e077:	48 c1 e2 04          	shl    rdx,0x4
  40e07b:	48 01 d0             	add    rax,rdx
  40e07e:	8b 40 08             	mov    eax,DWORD PTR [rax+0x8]
  40e081:	41 01 c6             	add    r14d,eax
  40e084:	0f b7 d3             	movzx  edx,bx
  40e087:	48 8b 85 08 ff ff ff 	mov    rax,QWORD PTR [rbp-0xf8]
  40e08e:	48 63 d2             	movsxd rdx,edx
  40e091:	48 c1 e2 04          	shl    rdx,0x4
  40e095:	48 01 d0             	add    rax,rdx
  40e098:	48 05 b4 c9 00 00    	add    rax,0xc9b4
  40e09e:	8b 40 08             	mov    eax,DWORD PTR [rax+0x8]
  40e0a1:	41 01 c5             	add    r13d,eax
  40e0a4:	0f b7 d3             	movzx  edx,bx
  40e0a7:	48 8b 85 08 ff ff ff 	mov    rax,QWORD PTR [rbp-0xf8]
  40e0ae:	48 63 d2             	movsxd rdx,edx
  40e0b1:	48 c1 e2 04          	shl    rdx,0x4
  40e0b5:	48 01 d0             	add    rax,rdx
  40e0b8:	48 05 b8 c9 00 00    	add    rax,0xc9b8
  40e0be:	8b 40 08             	mov    eax,DWORD PTR [rax+0x8]
  40e0c1:	41 01 c4             	add    r12d,eax
  40e0c4:	8b 45 cc             	mov    eax,DWORD PTR [rbp-0x34]
  40e0c7:	48 98                	cdqe   
  40e0c9:	48 83 c0 1a          	add    rax,0x1a
  40e0cd:	48 8d 14 00          	lea    rdx,[rax+rax*1]
  40e0d1:	48 8b 45 88          	mov    rax,QWORD PTR [rbp-0x78]
  40e0d5:	48 01 d0             	add    rax,rdx
  40e0d8:	0f b7 18             	movzx  ebx,WORD PTR [rax]
  40e0db:	0f b7 d3             	movzx  edx,bx
  40e0de:	48 8b 85 08 ff ff ff 	mov    rax,QWORD PTR [rbp-0xf8]
  40e0e5:	48 63 d2             	movsxd rdx,edx
  40e0e8:	48 81 c2 9b 0c 00 00 	add    rdx,0xc9b
  40e0ef:	48 c1 e2 04          	shl    rdx,0x4
  40e0f3:	48 01 d0             	add    rax,rdx
  40e0f6:	8b 40 08             	mov    eax,DWORD PTR [rax+0x8]
  40e0f9:	41 01 c6             	add    r14d,eax
  40e0fc:	0f b7 d3             	movzx  edx,bx
  40e0ff:	48 8b 85 08 ff ff ff 	mov    rax,QWORD PTR [rbp-0xf8]
  40e106:	48 63 d2             	movsxd rdx,edx
  40e109:	48 c1 e2 04          	shl    rdx,0x4
  40e10d:	48 01 d0             	add    rax,rdx
  40e110:	48 05 b4 c9 00 00    	add    rax,0xc9b4
  40e116:	8b 40 08             	mov    eax,DWORD PTR [rax+0x8]
  40e119:	41 01 c5             	add    r13d,eax
  40e11c:	0f b7 d3             	movzx  edx,bx
  40e11f:	48 8b 85 08 ff ff ff 	mov    rax,QWORD PTR [rbp-0xf8]
  40e126:	48 63 d2             	movsxd rdx,edx
  40e129:	48 c1 e2 04          	shl    rdx,0x4
  40e12d:	48 01 d0             	add    rax,rdx
  40e130:	48 05 b8 c9 00 00    	add    rax,0xc9b8
  40e136:	8b 40 08             	mov    eax,DWORD PTR [rax+0x8]
  40e139:	41 01 c4             	add    r12d,eax
  40e13c:	8b 45 cc             	mov    eax,DWORD PTR [rbp-0x34]
  40e13f:	48 98                	cdqe   
  40e141:	48 83 c0 1b          	add    rax,0x1b
  40e145:	48 8d 14 00          	lea    rdx,[rax+rax*1]
  40e149:	48 8b 45 88          	mov    rax,QWORD PTR [rbp-0x78]
  40e14d:	48 01 d0             	add    rax,rdx
  40e150:	0f b7 18             	movzx  ebx,WORD PTR [rax]
  40e153:	0f b7 d3             	movzx  edx,bx
  40e156:	48 8b 85 08 ff ff ff 	mov    rax,QWORD PTR [rbp-0xf8]
  40e15d:	48 63 d2             	movsxd rdx,edx
  40e160:	48 81 c2 9b 0c 00 00 	add    rdx,0xc9b
  40e167:	48 c1 e2 04          	shl    rdx,0x4
  40e16b:	48 01 d0             	add    rax,rdx
  40e16e:	8b 40 08             	mov    eax,DWORD PTR [rax+0x8]
  40e171:	41 01 c6             	add    r14d,eax
  40e174:	0f b7 d3             	movzx  edx,bx
  40e177:	48 8b 85 08 ff ff ff 	mov    rax,QWORD PTR [rbp-0xf8]
  40e17e:	48 63 d2             	movsxd rdx,edx
  40e181:	48 c1 e2 04          	shl    rdx,0x4
  40e185:	48 01 d0             	add    rax,rdx
  40e188:	48 05 b4 c9 00 00    	add    rax,0xc9b4
  40e18e:	8b 40 08             	mov    eax,DWORD PTR [rax+0x8]
  40e191:	41 01 c5             	add    r13d,eax
  40e194:	0f b7 d3             	movzx  edx,bx
  40e197:	48 8b 85 08 ff ff ff 	mov    rax,QWORD PTR [rbp-0xf8]
  40e19e:	48 63 d2             	movsxd rdx,edx
  40e1a1:	48 c1 e2 04          	shl    rdx,0x4
  40e1a5:	48 01 d0             	add    rax,rdx
  40e1a8:	48 05 b8 c9 00 00    	add    rax,0xc9b8
  40e1ae:	8b 40 08             	mov    eax,DWORD PTR [rax+0x8]
  40e1b1:	41 01 c4             	add    r12d,eax
  40e1b4:	8b 45 cc             	mov    eax,DWORD PTR [rbp-0x34]
  40e1b7:	48 98                	cdqe   
  40e1b9:	48 83 c0 1c          	add    rax,0x1c
  40e1bd:	48 8d 14 00          	lea    rdx,[rax+rax*1]
  40e1c1:	48 8b 45 88          	mov    rax,QWORD PTR [rbp-0x78]
  40e1c5:	48 01 d0             	add    rax,rdx
  40e1c8:	0f b7 18             	movzx  ebx,WORD PTR [rax]
  40e1cb:	0f b7 d3             	movzx  edx,bx
  40e1ce:	48 8b 85 08 ff ff ff 	mov    rax,QWORD PTR [rbp-0xf8]
  40e1d5:	48 63 d2             	movsxd rdx,edx
  40e1d8:	48 81 c2 9b 0c 00 00 	add    rdx,0xc9b
  40e1df:	48 c1 e2 04          	shl    rdx,0x4
  40e1e3:	48 01 d0             	add    rax,rdx
  40e1e6:	8b 40 08             	mov    eax,DWORD PTR [rax+0x8]
  40e1e9:	41 01 c6             	add    r14d,eax
  40e1ec:	0f b7 d3             	movzx  edx,bx
  40e1ef:	48 8b 85 08 ff ff ff 	mov    rax,QWORD PTR [rbp-0xf8]
  40e1f6:	48 63 d2             	movsxd rdx,edx
  40e1f9:	48 c1 e2 04          	shl    rdx,0x4
  40e1fd:	48 01 d0             	add    rax,rdx
  40e200:	48 05 b4 c9 00 00    	add    rax,0xc9b4
  40e206:	8b 40 08             	mov    eax,DWORD PTR [rax+0x8]
  40e209:	41 01 c5             	add    r13d,eax
  40e20c:	0f b7 d3             	movzx  edx,bx
  40e20f:	48 8b 85 08 ff ff ff 	mov    rax,QWORD PTR [rbp-0xf8]
  40e216:	48 63 d2             	movsxd rdx,edx
  40e219:	48 c1 e2 04          	shl    rdx,0x4
  40e21d:	48 01 d0             	add    rax,rdx
  40e220:	48 05 b8 c9 00 00    	add    rax,0xc9b8
  40e226:	8b 40 08             	mov    eax,DWORD PTR [rax+0x8]
  40e229:	41 01 c4             	add    r12d,eax
  40e22c:	8b 45 cc             	mov    eax,DWORD PTR [rbp-0x34]
  40e22f:	48 98                	cdqe   
  40e231:	48 83 c0 1d          	add    rax,0x1d
  40e235:	48 8d 14 00          	lea    rdx,[rax+rax*1]
  40e239:	48 8b 45 88          	mov    rax,QWORD PTR [rbp-0x78]
  40e23d:	48 01 d0             	add    rax,rdx
  40e240:	0f b7 18             	movzx  ebx,WORD PTR [rax]
  40e243:	0f b7 d3             	movzx  edx,bx
  40e246:	48 8b 85 08 ff ff ff 	mov    rax,QWORD PTR [rbp-0xf8]
  40e24d:	48 63 d2             	movsxd rdx,edx
  40e250:	48 81 c2 9b 0c 00 00 	add    rdx,0xc9b
  40e257:	48 c1 e2 04          	shl    rdx,0x4
  40e25b:	48 01 d0             	add    rax,rdx
  40e25e:	8b 40 08             	mov    eax,DWORD PTR [rax+0x8]
  40e261:	41 01 c6             	add    r14d,eax
  40e264:	0f b7 d3             	movzx  edx,bx
  40e267:	48 8b 85 08 ff ff ff 	mov    rax,QWORD PTR [rbp-0xf8]
  40e26e:	48 63 d2             	movsxd rdx,edx
  40e271:	48 c1 e2 04          	shl    rdx,0x4
  40e275:	48 01 d0             	add    rax,rdx
  40e278:	48 05 b4 c9 00 00    	add    rax,0xc9b4
  40e27e:	8b 40 08             	mov    eax,DWORD PTR [rax+0x8]
  40e281:	41 01 c5             	add    r13d,eax
  40e284:	0f b7 d3             	movzx  edx,bx
  40e287:	48 8b 85 08 ff ff ff 	mov    rax,QWORD PTR [rbp-0xf8]
  40e28e:	48 63 d2             	movsxd rdx,edx
  40e291:	48 c1 e2 04          	shl    rdx,0x4
  40e295:	48 01 d0             	add    rax,rdx
  40e298:	48 05 b8 c9 00 00    	add    rax,0xc9b8
  40e29e:	8b 40 08             	mov    eax,DWORD PTR [rax+0x8]
  40e2a1:	41 01 c4             	add    r12d,eax
  40e2a4:	8b 45 cc             	mov    eax,DWORD PTR [rbp-0x34]
  40e2a7:	48 98                	cdqe   
  40e2a9:	48 83 c0 1e          	add    rax,0x1e
  40e2ad:	48 8d 14 00          	lea    rdx,[rax+rax*1]
  40e2b1:	48 8b 45 88          	mov    rax,QWORD PTR [rbp-0x78]
  40e2b5:	48 01 d0             	add    rax,rdx
  40e2b8:	0f b7 18             	movzx  ebx,WORD PTR [rax]
  40e2bb:	0f b7 d3             	movzx  edx,bx
  40e2be:	48 8b 85 08 ff ff ff 	mov    rax,QWORD PTR [rbp-0xf8]
  40e2c5:	48 63 d2             	movsxd rdx,edx
  40e2c8:	48 81 c2 9b 0c 00 00 	add    rdx,0xc9b
  40e2cf:	48 c1 e2 04          	shl    rdx,0x4
  40e2d3:	48 01 d0             	add    rax,rdx
  40e2d6:	8b 40 08             	mov    eax,DWORD PTR [rax+0x8]
  40e2d9:	41 01 c6             	add    r14d,eax
  40e2dc:	0f b7 d3             	movzx  edx,bx
  40e2df:	48 8b 85 08 ff ff ff 	mov    rax,QWORD PTR [rbp-0xf8]
  40e2e6:	48 63 d2             	movsxd rdx,edx
  40e2e9:	48 c1 e2 04          	shl    rdx,0x4
  40e2ed:	48 01 d0             	add    rax,rdx
  40e2f0:	48 05 b4 c9 00 00    	add    rax,0xc9b4
  40e2f6:	8b 40 08             	mov    eax,DWORD PTR [rax+0x8]
  40e2f9:	41 01 c5             	add    r13d,eax
  40e2fc:	0f b7 d3             	movzx  edx,bx
  40e2ff:	48 8b 85 08 ff ff ff 	mov    rax,QWORD PTR [rbp-0xf8]
  40e306:	48 63 d2             	movsxd rdx,edx
  40e309:	48 c1 e2 04          	shl    rdx,0x4
  40e30d:	48 01 d0             	add    rax,rdx
  40e310:	48 05 b8 c9 00 00    	add    rax,0xc9b8
  40e316:	8b 40 08             	mov    eax,DWORD PTR [rax+0x8]
  40e319:	41 01 c4             	add    r12d,eax
  40e31c:	8b 45 cc             	mov    eax,DWORD PTR [rbp-0x34]
  40e31f:	48 98                	cdqe   
  40e321:	48 83 c0 1f          	add    rax,0x1f
  40e325:	48 8d 14 00          	lea    rdx,[rax+rax*1]
  40e329:	48 8b 45 88          	mov    rax,QWORD PTR [rbp-0x78]
  40e32d:	48 01 d0             	add    rax,rdx
  40e330:	0f b7 18             	movzx  ebx,WORD PTR [rax]
  40e333:	0f b7 d3             	movzx  edx,bx
  40e336:	48 8b 85 08 ff ff ff 	mov    rax,QWORD PTR [rbp-0xf8]
  40e33d:	48 63 d2             	movsxd rdx,edx
  40e340:	48 81 c2 9b 0c 00 00 	add    rdx,0xc9b
  40e347:	48 c1 e2 04          	shl    rdx,0x4
  40e34b:	48 01 d0             	add    rax,rdx
  40e34e:	8b 40 08             	mov    eax,DWORD PTR [rax+0x8]
  40e351:	41 01 c6             	add    r14d,eax
  40e354:	0f b7 d3             	movzx  edx,bx
  40e357:	48 8b 85 08 ff ff ff 	mov    rax,QWORD PTR [rbp-0xf8]
  40e35e:	48 63 d2             	movsxd rdx,edx
  40e361:	48 c1 e2 04          	shl    rdx,0x4
  40e365:	48 01 d0             	add    rax,rdx
  40e368:	48 05 b4 c9 00 00    	add    rax,0xc9b4
  40e36e:	8b 40 08             	mov    eax,DWORD PTR [rax+0x8]
  40e371:	41 01 c5             	add    r13d,eax
  40e374:	0f b7 d3             	movzx  edx,bx
  40e377:	48 8b 85 08 ff ff ff 	mov    rax,QWORD PTR [rbp-0xf8]
  40e37e:	48 63 d2             	movsxd rdx,edx
  40e381:	48 c1 e2 04          	shl    rdx,0x4
  40e385:	48 01 d0             	add    rax,rdx
  40e388:	48 05 b8 c9 00 00    	add    rax,0xc9b8
  40e38e:	8b 40 08             	mov    eax,DWORD PTR [rax+0x8]
  40e391:	41 01 c4             	add    r12d,eax
  40e394:	8b 45 cc             	mov    eax,DWORD PTR [rbp-0x34]
  40e397:	48 98                	cdqe   
  40e399:	48 83 c0 20          	add    rax,0x20
  40e39d:	48 8d 14 00          	lea    rdx,[rax+rax*1]
  40e3a1:	48 8b 45 88          	mov    rax,QWORD PTR [rbp-0x78]
  40e3a5:	48 01 d0             	add    rax,rdx
  40e3a8:	0f b7 18             	movzx  ebx,WORD PTR [rax]
  40e3ab:	0f b7 d3             	movzx  edx,bx
  40e3ae:	48 8b 85 08 ff ff ff 	mov    rax,QWORD PTR [rbp-0xf8]
  40e3b5:	48 63 d2             	movsxd rdx,edx
  40e3b8:	48 81 c2 9b 0c 00 00 	add    rdx,0xc9b
  40e3bf:	48 c1 e2 04          	shl    rdx,0x4
  40e3c3:	48 01 d0             	add    rax,rdx
  40e3c6:	8b 40 08             	mov    eax,DWORD PTR [rax+0x8]
  40e3c9:	41 01 c6             	add    r14d,eax
  40e3cc:	0f b7 d3             	movzx  edx,bx
  40e3cf:	48 8b 85 08 ff ff ff 	mov    rax,QWORD PTR [rbp-0xf8]
  40e3d6:	48 63 d2             	movsxd rdx,edx
  40e3d9:	48 c1 e2 04          	shl    rdx,0x4
  40e3dd:	48 01 d0             	add    rax,rdx
  40e3e0:	48 05 b4 c9 00 00    	add    rax,0xc9b4
  40e3e6:	8b 40 08             	mov    eax,DWORD PTR [rax+0x8]
  40e3e9:	41 01 c5             	add    r13d,eax
  40e3ec:	0f b7 d3             	movzx  edx,bx
  40e3ef:	48 8b 85 08 ff ff ff 	mov    rax,QWORD PTR [rbp-0xf8]
  40e3f6:	48 63 d2             	movsxd rdx,edx
  40e3f9:	48 c1 e2 04          	shl    rdx,0x4
  40e3fd:	48 01 d0             	add    rax,rdx
  40e400:	48 05 b8 c9 00 00    	add    rax,0xc9b8
  40e406:	8b 40 08             	mov    eax,DWORD PTR [rax+0x8]
  40e409:	41 01 c4             	add    r12d,eax
  40e40c:	8b 45 cc             	mov    eax,DWORD PTR [rbp-0x34]
  40e40f:	48 98                	cdqe   
  40e411:	48 83 c0 21          	add    rax,0x21
  40e415:	48 8d 14 00          	lea    rdx,[rax+rax*1]
  40e419:	48 8b 45 88          	mov    rax,QWORD PTR [rbp-0x78]
  40e41d:	48 01 d0             	add    rax,rdx
  40e420:	0f b7 18             	movzx  ebx,WORD PTR [rax]
  40e423:	0f b7 d3             	movzx  edx,bx
  40e426:	48 8b 85 08 ff ff ff 	mov    rax,QWORD PTR [rbp-0xf8]
  40e42d:	48 63 d2             	movsxd rdx,edx
  40e430:	48 81 c2 9b 0c 00 00 	add    rdx,0xc9b
  40e437:	48 c1 e2 04          	shl    rdx,0x4
  40e43b:	48 01 d0             	add    rax,rdx
  40e43e:	8b 40 08             	mov    eax,DWORD PTR [rax+0x8]
  40e441:	41 01 c6             	add    r14d,eax
  40e444:	0f b7 d3             	movzx  edx,bx
  40e447:	48 8b 85 08 ff ff ff 	mov    rax,QWORD PTR [rbp-0xf8]
  40e44e:	48 63 d2             	movsxd rdx,edx
  40e451:	48 c1 e2 04          	shl    rdx,0x4
  40e455:	48 01 d0             	add    rax,rdx
  40e458:	48 05 b4 c9 00 00    	add    rax,0xc9b4
  40e45e:	8b 40 08             	mov    eax,DWORD PTR [rax+0x8]
  40e461:	41 01 c5             	add    r13d,eax
  40e464:	0f b7 d3             	movzx  edx,bx
  40e467:	48 8b 85 08 ff ff ff 	mov    rax,QWORD PTR [rbp-0xf8]
  40e46e:	48 63 d2             	movsxd rdx,edx
  40e471:	48 c1 e2 04          	shl    rdx,0x4
  40e475:	48 01 d0             	add    rax,rdx
  40e478:	48 05 b8 c9 00 00    	add    rax,0xc9b8
  40e47e:	8b 40 08             	mov    eax,DWORD PTR [rax+0x8]
  40e481:	41 01 c4             	add    r12d,eax
  40e484:	8b 45 cc             	mov    eax,DWORD PTR [rbp-0x34]
  40e487:	48 98                	cdqe   
  40e489:	48 83 c0 22          	add    rax,0x22
  40e48d:	48 8d 14 00          	lea    rdx,[rax+rax*1]
  40e491:	48 8b 45 88          	mov    rax,QWORD PTR [rbp-0x78]
  40e495:	48 01 d0             	add    rax,rdx
  40e498:	0f b7 18             	movzx  ebx,WORD PTR [rax]
  40e49b:	0f b7 d3             	movzx  edx,bx
  40e49e:	48 8b 85 08 ff ff ff 	mov    rax,QWORD PTR [rbp-0xf8]
  40e4a5:	48 63 d2             	movsxd rdx,edx
  40e4a8:	48 81 c2 9b 0c 00 00 	add    rdx,0xc9b
  40e4af:	48 c1 e2 04          	shl    rdx,0x4
  40e4b3:	48 01 d0             	add    rax,rdx
  40e4b6:	8b 40 08             	mov    eax,DWORD PTR [rax+0x8]
  40e4b9:	41 01 c6             	add    r14d,eax
  40e4bc:	0f b7 d3             	movzx  edx,bx
  40e4bf:	48 8b 85 08 ff ff ff 	mov    rax,QWORD PTR [rbp-0xf8]
  40e4c6:	48 63 d2             	movsxd rdx,edx
  40e4c9:	48 c1 e2 04          	shl    rdx,0x4
  40e4cd:	48 01 d0             	add    rax,rdx
  40e4d0:	48 05 b4 c9 00 00    	add    rax,0xc9b4
  40e4d6:	8b 40 08             	mov    eax,DWORD PTR [rax+0x8]
  40e4d9:	41 01 c5             	add    r13d,eax
  40e4dc:	0f b7 d3             	movzx  edx,bx
  40e4df:	48 8b 85 08 ff ff ff 	mov    rax,QWORD PTR [rbp-0xf8]
  40e4e6:	48 63 d2             	movsxd rdx,edx
  40e4e9:	48 c1 e2 04          	shl    rdx,0x4
  40e4ed:	48 01 d0             	add    rax,rdx
  40e4f0:	48 05 b8 c9 00 00    	add    rax,0xc9b8
  40e4f6:	8b 40 08             	mov    eax,DWORD PTR [rax+0x8]
  40e4f9:	41 01 c4             	add    r12d,eax
  40e4fc:	8b 45 cc             	mov    eax,DWORD PTR [rbp-0x34]
  40e4ff:	48 98                	cdqe   
  40e501:	48 83 c0 23          	add    rax,0x23
  40e505:	48 8d 14 00          	lea    rdx,[rax+rax*1]
  40e509:	48 8b 45 88          	mov    rax,QWORD PTR [rbp-0x78]
  40e50d:	48 01 d0             	add    rax,rdx
  40e510:	0f b7 18             	movzx  ebx,WORD PTR [rax]
  40e513:	0f b7 d3             	movzx  edx,bx
  40e516:	48 8b 85 08 ff ff ff 	mov    rax,QWORD PTR [rbp-0xf8]
  40e51d:	48 63 d2             	movsxd rdx,edx
  40e520:	48 81 c2 9b 0c 00 00 	add    rdx,0xc9b
  40e527:	48 c1 e2 04          	shl    rdx,0x4
  40e52b:	48 01 d0             	add    rax,rdx
  40e52e:	8b 40 08             	mov    eax,DWORD PTR [rax+0x8]
  40e531:	41 01 c6             	add    r14d,eax
  40e534:	0f b7 d3             	movzx  edx,bx
  40e537:	48 8b 85 08 ff ff ff 	mov    rax,QWORD PTR [rbp-0xf8]
  40e53e:	48 63 d2             	movsxd rdx,edx
  40e541:	48 c1 e2 04          	shl    rdx,0x4
  40e545:	48 01 d0             	add    rax,rdx
  40e548:	48 05 b4 c9 00 00    	add    rax,0xc9b4
  40e54e:	8b 40 08             	mov    eax,DWORD PTR [rax+0x8]
  40e551:	41 01 c5             	add    r13d,eax
  40e554:	0f b7 d3             	movzx  edx,bx
  40e557:	48 8b 85 08 ff ff ff 	mov    rax,QWORD PTR [rbp-0xf8]
  40e55e:	48 63 d2             	movsxd rdx,edx
  40e561:	48 c1 e2 04          	shl    rdx,0x4
  40e565:	48 01 d0             	add    rax,rdx
  40e568:	48 05 b8 c9 00 00    	add    rax,0xc9b8
  40e56e:	8b 40 08             	mov    eax,DWORD PTR [rax+0x8]
  40e571:	41 01 c4             	add    r12d,eax
  40e574:	8b 45 cc             	mov    eax,DWORD PTR [rbp-0x34]
  40e577:	48 98                	cdqe   
  40e579:	48 83 c0 24          	add    rax,0x24
  40e57d:	48 8d 14 00          	lea    rdx,[rax+rax*1]
  40e581:	48 8b 45 88          	mov    rax,QWORD PTR [rbp-0x78]
  40e585:	48 01 d0             	add    rax,rdx
  40e588:	0f b7 18             	movzx  ebx,WORD PTR [rax]
  40e58b:	0f b7 d3             	movzx  edx,bx
  40e58e:	48 8b 85 08 ff ff ff 	mov    rax,QWORD PTR [rbp-0xf8]
  40e595:	48 63 d2             	movsxd rdx,edx
  40e598:	48 81 c2 9b 0c 00 00 	add    rdx,0xc9b
  40e59f:	48 c1 e2 04          	shl    rdx,0x4
  40e5a3:	48 01 d0             	add    rax,rdx
  40e5a6:	8b 40 08             	mov    eax,DWORD PTR [rax+0x8]
  40e5a9:	41 01 c6             	add    r14d,eax
  40e5ac:	0f b7 d3             	movzx  edx,bx
  40e5af:	48 8b 85 08 ff ff ff 	mov    rax,QWORD PTR [rbp-0xf8]
  40e5b6:	48 63 d2             	movsxd rdx,edx
  40e5b9:	48 c1 e2 04          	shl    rdx,0x4
  40e5bd:	48 01 d0             	add    rax,rdx
  40e5c0:	48 05 b4 c9 00 00    	add    rax,0xc9b4
  40e5c6:	8b 40 08             	mov    eax,DWORD PTR [rax+0x8]
  40e5c9:	41 01 c5             	add    r13d,eax
  40e5cc:	0f b7 d3             	movzx  edx,bx
  40e5cf:	48 8b 85 08 ff ff ff 	mov    rax,QWORD PTR [rbp-0xf8]
  40e5d6:	48 63 d2             	movsxd rdx,edx
  40e5d9:	48 c1 e2 04          	shl    rdx,0x4
  40e5dd:	48 01 d0             	add    rax,rdx
  40e5e0:	48 05 b8 c9 00 00    	add    rax,0xc9b8
  40e5e6:	8b 40 08             	mov    eax,DWORD PTR [rax+0x8]
  40e5e9:	41 01 c4             	add    r12d,eax
  40e5ec:	8b 45 cc             	mov    eax,DWORD PTR [rbp-0x34]
  40e5ef:	48 98                	cdqe   
  40e5f1:	48 83 c0 25          	add    rax,0x25
  40e5f5:	48 8d 14 00          	lea    rdx,[rax+rax*1]
  40e5f9:	48 8b 45 88          	mov    rax,QWORD PTR [rbp-0x78]
  40e5fd:	48 01 d0             	add    rax,rdx
  40e600:	0f b7 18             	movzx  ebx,WORD PTR [rax]
  40e603:	0f b7 d3             	movzx  edx,bx
  40e606:	48 8b 85 08 ff ff ff 	mov    rax,QWORD PTR [rbp-0xf8]
  40e60d:	48 63 d2             	movsxd rdx,edx
  40e610:	48 81 c2 9b 0c 00 00 	add    rdx,0xc9b
  40e617:	48 c1 e2 04          	shl    rdx,0x4
  40e61b:	48 01 d0             	add    rax,rdx
  40e61e:	8b 40 08             	mov    eax,DWORD PTR [rax+0x8]
  40e621:	41 01 c6             	add    r14d,eax
  40e624:	0f b7 d3             	movzx  edx,bx
  40e627:	48 8b 85 08 ff ff ff 	mov    rax,QWORD PTR [rbp-0xf8]
  40e62e:	48 63 d2             	movsxd rdx,edx
  40e631:	48 c1 e2 04          	shl    rdx,0x4
  40e635:	48 01 d0             	add    rax,rdx
  40e638:	48 05 b4 c9 00 00    	add    rax,0xc9b4
  40e63e:	8b 40 08             	mov    eax,DWORD PTR [rax+0x8]
  40e641:	41 01 c5             	add    r13d,eax
  40e644:	0f b7 d3             	movzx  edx,bx
  40e647:	48 8b 85 08 ff ff ff 	mov    rax,QWORD PTR [rbp-0xf8]
  40e64e:	48 63 d2             	movsxd rdx,edx
  40e651:	48 c1 e2 04          	shl    rdx,0x4
  40e655:	48 01 d0             	add    rax,rdx
  40e658:	48 05 b8 c9 00 00    	add    rax,0xc9b8
  40e65e:	8b 40 08             	mov    eax,DWORD PTR [rax+0x8]
  40e661:	41 01 c4             	add    r12d,eax
  40e664:	8b 45 cc             	mov    eax,DWORD PTR [rbp-0x34]
  40e667:	48 98                	cdqe   
  40e669:	48 83 c0 26          	add    rax,0x26
  40e66d:	48 8d 14 00          	lea    rdx,[rax+rax*1]
  40e671:	48 8b 45 88          	mov    rax,QWORD PTR [rbp-0x78]
  40e675:	48 01 d0             	add    rax,rdx
  40e678:	0f b7 18             	movzx  ebx,WORD PTR [rax]
  40e67b:	0f b7 d3             	movzx  edx,bx
  40e67e:	48 8b 85 08 ff ff ff 	mov    rax,QWORD PTR [rbp-0xf8]
  40e685:	48 63 d2             	movsxd rdx,edx
  40e688:	48 81 c2 9b 0c 00 00 	add    rdx,0xc9b
  40e68f:	48 c1 e2 04          	shl    rdx,0x4
  40e693:	48 01 d0             	add    rax,rdx
  40e696:	8b 40 08             	mov    eax,DWORD PTR [rax+0x8]
  40e699:	41 01 c6             	add    r14d,eax
  40e69c:	0f b7 d3             	movzx  edx,bx
  40e69f:	48 8b 85 08 ff ff ff 	mov    rax,QWORD PTR [rbp-0xf8]
  40e6a6:	48 63 d2             	movsxd rdx,edx
  40e6a9:	48 c1 e2 04          	shl    rdx,0x4
  40e6ad:	48 01 d0             	add    rax,rdx
  40e6b0:	48 05 b4 c9 00 00    	add    rax,0xc9b4
  40e6b6:	8b 40 08             	mov    eax,DWORD PTR [rax+0x8]
  40e6b9:	41 01 c5             	add    r13d,eax
  40e6bc:	0f b7 d3             	movzx  edx,bx
  40e6bf:	48 8b 85 08 ff ff ff 	mov    rax,QWORD PTR [rbp-0xf8]
  40e6c6:	48 63 d2             	movsxd rdx,edx
  40e6c9:	48 c1 e2 04          	shl    rdx,0x4
  40e6cd:	48 01 d0             	add    rax,rdx
  40e6d0:	48 05 b8 c9 00 00    	add    rax,0xc9b8
  40e6d6:	8b 40 08             	mov    eax,DWORD PTR [rax+0x8]
  40e6d9:	41 01 c4             	add    r12d,eax
  40e6dc:	8b 45 cc             	mov    eax,DWORD PTR [rbp-0x34]
  40e6df:	48 98                	cdqe   
  40e6e1:	48 83 c0 27          	add    rax,0x27
  40e6e5:	48 8d 14 00          	lea    rdx,[rax+rax*1]
  40e6e9:	48 8b 45 88          	mov    rax,QWORD PTR [rbp-0x78]
  40e6ed:	48 01 d0             	add    rax,rdx
  40e6f0:	0f b7 18             	movzx  ebx,WORD PTR [rax]
  40e6f3:	0f b7 d3             	movzx  edx,bx
  40e6f6:	48 8b 85 08 ff ff ff 	mov    rax,QWORD PTR [rbp-0xf8]
  40e6fd:	48 63 d2             	movsxd rdx,edx
  40e700:	48 81 c2 9b 0c 00 00 	add    rdx,0xc9b
  40e707:	48 c1 e2 04          	shl    rdx,0x4
  40e70b:	48 01 d0             	add    rax,rdx
  40e70e:	8b 40 08             	mov    eax,DWORD PTR [rax+0x8]
  40e711:	41 01 c6             	add    r14d,eax
  40e714:	0f b7 d3             	movzx  edx,bx
  40e717:	48 8b 85 08 ff ff ff 	mov    rax,QWORD PTR [rbp-0xf8]
  40e71e:	48 63 d2             	movsxd rdx,edx
  40e721:	48 c1 e2 04          	shl    rdx,0x4
  40e725:	48 01 d0             	add    rax,rdx
  40e728:	48 05 b4 c9 00 00    	add    rax,0xc9b4
  40e72e:	8b 40 08             	mov    eax,DWORD PTR [rax+0x8]
  40e731:	41 01 c5             	add    r13d,eax
  40e734:	0f b7 d3             	movzx  edx,bx
  40e737:	48 8b 85 08 ff ff ff 	mov    rax,QWORD PTR [rbp-0xf8]
  40e73e:	48 63 d2             	movsxd rdx,edx
  40e741:	48 c1 e2 04          	shl    rdx,0x4
  40e745:	48 01 d0             	add    rax,rdx
  40e748:	48 05 b8 c9 00 00    	add    rax,0xc9b8
  40e74e:	8b 40 08             	mov    eax,DWORD PTR [rax+0x8]
  40e751:	41 01 c4             	add    r12d,eax
  40e754:	8b 45 cc             	mov    eax,DWORD PTR [rbp-0x34]
  40e757:	48 98                	cdqe   
  40e759:	48 83 c0 28          	add    rax,0x28
  40e75d:	48 8d 14 00          	lea    rdx,[rax+rax*1]
  40e761:	48 8b 45 88          	mov    rax,QWORD PTR [rbp-0x78]
  40e765:	48 01 d0             	add    rax,rdx
  40e768:	0f b7 18             	movzx  ebx,WORD PTR [rax]
  40e76b:	0f b7 d3             	movzx  edx,bx
  40e76e:	48 8b 85 08 ff ff ff 	mov    rax,QWORD PTR [rbp-0xf8]
  40e775:	48 63 d2             	movsxd rdx,edx
  40e778:	48 81 c2 9b 0c 00 00 	add    rdx,0xc9b
  40e77f:	48 c1 e2 04          	shl    rdx,0x4
  40e783:	48 01 d0             	add    rax,rdx
  40e786:	8b 40 08             	mov    eax,DWORD PTR [rax+0x8]
  40e789:	41 01 c6             	add    r14d,eax
  40e78c:	0f b7 d3             	movzx  edx,bx
  40e78f:	48 8b 85 08 ff ff ff 	mov    rax,QWORD PTR [rbp-0xf8]
  40e796:	48 63 d2             	movsxd rdx,edx
  40e799:	48 c1 e2 04          	shl    rdx,0x4
  40e79d:	48 01 d0             	add    rax,rdx
  40e7a0:	48 05 b4 c9 00 00    	add    rax,0xc9b4
  40e7a6:	8b 40 08             	mov    eax,DWORD PTR [rax+0x8]
  40e7a9:	41 01 c5             	add    r13d,eax
  40e7ac:	0f b7 d3             	movzx  edx,bx
  40e7af:	48 8b 85 08 ff ff ff 	mov    rax,QWORD PTR [rbp-0xf8]
  40e7b6:	48 63 d2             	movsxd rdx,edx
  40e7b9:	48 c1 e2 04          	shl    rdx,0x4
  40e7bd:	48 01 d0             	add    rax,rdx
  40e7c0:	48 05 b8 c9 00 00    	add    rax,0xc9b8
  40e7c6:	8b 40 08             	mov    eax,DWORD PTR [rax+0x8]
  40e7c9:	41 01 c4             	add    r12d,eax
  40e7cc:	8b 45 cc             	mov    eax,DWORD PTR [rbp-0x34]
  40e7cf:	48 98                	cdqe   
  40e7d1:	48 83 c0 29          	add    rax,0x29
  40e7d5:	48 8d 14 00          	lea    rdx,[rax+rax*1]
  40e7d9:	48 8b 45 88          	mov    rax,QWORD PTR [rbp-0x78]
  40e7dd:	48 01 d0             	add    rax,rdx
  40e7e0:	0f b7 18             	movzx  ebx,WORD PTR [rax]
  40e7e3:	0f b7 d3             	movzx  edx,bx
  40e7e6:	48 8b 85 08 ff ff ff 	mov    rax,QWORD PTR [rbp-0xf8]
  40e7ed:	48 63 d2             	movsxd rdx,edx
  40e7f0:	48 81 c2 9b 0c 00 00 	add    rdx,0xc9b
  40e7f7:	48 c1 e2 04          	shl    rdx,0x4
  40e7fb:	48 01 d0             	add    rax,rdx
  40e7fe:	8b 40 08             	mov    eax,DWORD PTR [rax+0x8]
  40e801:	41 01 c6             	add    r14d,eax
  40e804:	0f b7 d3             	movzx  edx,bx
  40e807:	48 8b 85 08 ff ff ff 	mov    rax,QWORD PTR [rbp-0xf8]
  40e80e:	48 63 d2             	movsxd rdx,edx
  40e811:	48 c1 e2 04          	shl    rdx,0x4
  40e815:	48 01 d0             	add    rax,rdx
  40e818:	48 05 b4 c9 00 00    	add    rax,0xc9b4
  40e81e:	8b 40 08             	mov    eax,DWORD PTR [rax+0x8]
  40e821:	41 01 c5             	add    r13d,eax
  40e824:	0f b7 d3             	movzx  edx,bx
  40e827:	48 8b 85 08 ff ff ff 	mov    rax,QWORD PTR [rbp-0xf8]
  40e82e:	48 63 d2             	movsxd rdx,edx
  40e831:	48 c1 e2 04          	shl    rdx,0x4
  40e835:	48 01 d0             	add    rax,rdx
  40e838:	48 05 b8 c9 00 00    	add    rax,0xc9b8
  40e83e:	8b 40 08             	mov    eax,DWORD PTR [rax+0x8]
  40e841:	41 01 c4             	add    r12d,eax
  40e844:	8b 45 cc             	mov    eax,DWORD PTR [rbp-0x34]
  40e847:	48 98                	cdqe   
  40e849:	48 83 c0 2a          	add    rax,0x2a
  40e84d:	48 8d 14 00          	lea    rdx,[rax+rax*1]
  40e851:	48 8b 45 88          	mov    rax,QWORD PTR [rbp-0x78]
  40e855:	48 01 d0             	add    rax,rdx
  40e858:	0f b7 18             	movzx  ebx,WORD PTR [rax]
  40e85b:	0f b7 d3             	movzx  edx,bx
  40e85e:	48 8b 85 08 ff ff ff 	mov    rax,QWORD PTR [rbp-0xf8]
  40e865:	48 63 d2             	movsxd rdx,edx
  40e868:	48 81 c2 9b 0c 00 00 	add    rdx,0xc9b
  40e86f:	48 c1 e2 04          	shl    rdx,0x4
  40e873:	48 01 d0             	add    rax,rdx
  40e876:	8b 40 08             	mov    eax,DWORD PTR [rax+0x8]
  40e879:	41 01 c6             	add    r14d,eax
  40e87c:	0f b7 d3             	movzx  edx,bx
  40e87f:	48 8b 85 08 ff ff ff 	mov    rax,QWORD PTR [rbp-0xf8]
  40e886:	48 63 d2             	movsxd rdx,edx
  40e889:	48 c1 e2 04          	shl    rdx,0x4
  40e88d:	48 01 d0             	add    rax,rdx
  40e890:	48 05 b4 c9 00 00    	add    rax,0xc9b4
  40e896:	8b 40 08             	mov    eax,DWORD PTR [rax+0x8]
  40e899:	41 01 c5             	add    r13d,eax
  40e89c:	0f b7 d3             	movzx  edx,bx
  40e89f:	48 8b 85 08 ff ff ff 	mov    rax,QWORD PTR [rbp-0xf8]
  40e8a6:	48 63 d2             	movsxd rdx,edx
  40e8a9:	48 c1 e2 04          	shl    rdx,0x4
  40e8ad:	48 01 d0             	add    rax,rdx
  40e8b0:	48 05 b8 c9 00 00    	add    rax,0xc9b8
  40e8b6:	8b 40 08             	mov    eax,DWORD PTR [rax+0x8]
  40e8b9:	41 01 c4             	add    r12d,eax
  40e8bc:	8b 45 cc             	mov    eax,DWORD PTR [rbp-0x34]
  40e8bf:	48 98                	cdqe   
  40e8c1:	48 83 c0 2b          	add    rax,0x2b
  40e8c5:	48 8d 14 00          	lea    rdx,[rax+rax*1]
  40e8c9:	48 8b 45 88          	mov    rax,QWORD PTR [rbp-0x78]
  40e8cd:	48 01 d0             	add    rax,rdx
  40e8d0:	0f b7 18             	movzx  ebx,WORD PTR [rax]
  40e8d3:	0f b7 d3             	movzx  edx,bx
  40e8d6:	48 8b 85 08 ff ff ff 	mov    rax,QWORD PTR [rbp-0xf8]
  40e8dd:	48 63 d2             	movsxd rdx,edx
  40e8e0:	48 81 c2 9b 0c 00 00 	add    rdx,0xc9b
  40e8e7:	48 c1 e2 04          	shl    rdx,0x4
  40e8eb:	48 01 d0             	add    rax,rdx
  40e8ee:	8b 40 08             	mov    eax,DWORD PTR [rax+0x8]
  40e8f1:	41 01 c6             	add    r14d,eax
  40e8f4:	0f b7 d3             	movzx  edx,bx
  40e8f7:	48 8b 85 08 ff ff ff 	mov    rax,QWORD PTR [rbp-0xf8]
  40e8fe:	48 63 d2             	movsxd rdx,edx
  40e901:	48 c1 e2 04          	shl    rdx,0x4
  40e905:	48 01 d0             	add    rax,rdx
  40e908:	48 05 b4 c9 00 00    	add    rax,0xc9b4
  40e90e:	8b 40 08             	mov    eax,DWORD PTR [rax+0x8]
  40e911:	41 01 c5             	add    r13d,eax
  40e914:	0f b7 d3             	movzx  edx,bx
  40e917:	48 8b 85 08 ff ff ff 	mov    rax,QWORD PTR [rbp-0xf8]
  40e91e:	48 63 d2             	movsxd rdx,edx
  40e921:	48 c1 e2 04          	shl    rdx,0x4
  40e925:	48 01 d0             	add    rax,rdx
  40e928:	48 05 b8 c9 00 00    	add    rax,0xc9b8
  40e92e:	8b 40 08             	mov    eax,DWORD PTR [rax+0x8]
  40e931:	41 01 c4             	add    r12d,eax
  40e934:	8b 45 cc             	mov    eax,DWORD PTR [rbp-0x34]
  40e937:	48 98                	cdqe   
  40e939:	48 83 c0 2c          	add    rax,0x2c
  40e93d:	48 8d 14 00          	lea    rdx,[rax+rax*1]
  40e941:	48 8b 45 88          	mov    rax,QWORD PTR [rbp-0x78]
  40e945:	48 01 d0             	add    rax,rdx
  40e948:	0f b7 18             	movzx  ebx,WORD PTR [rax]
  40e94b:	0f b7 d3             	movzx  edx,bx
  40e94e:	48 8b 85 08 ff ff ff 	mov    rax,QWORD PTR [rbp-0xf8]
  40e955:	48 63 d2             	movsxd rdx,edx
  40e958:	48 81 c2 9b 0c 00 00 	add    rdx,0xc9b
  40e95f:	48 c1 e2 04          	shl    rdx,0x4
  40e963:	48 01 d0             	add    rax,rdx
  40e966:	8b 40 08             	mov    eax,DWORD PTR [rax+0x8]
  40e969:	41 01 c6             	add    r14d,eax
  40e96c:	0f b7 d3             	movzx  edx,bx
  40e96f:	48 8b 85 08 ff ff ff 	mov    rax,QWORD PTR [rbp-0xf8]
  40e976:	48 63 d2             	movsxd rdx,edx
  40e979:	48 c1 e2 04          	shl    rdx,0x4
  40e97d:	48 01 d0             	add    rax,rdx
  40e980:	48 05 b4 c9 00 00    	add    rax,0xc9b4
  40e986:	8b 40 08             	mov    eax,DWORD PTR [rax+0x8]
  40e989:	41 01 c5             	add    r13d,eax
  40e98c:	0f b7 d3             	movzx  edx,bx
  40e98f:	48 8b 85 08 ff ff ff 	mov    rax,QWORD PTR [rbp-0xf8]
  40e996:	48 63 d2             	movsxd rdx,edx
  40e999:	48 c1 e2 04          	shl    rdx,0x4
  40e99d:	48 01 d0             	add    rax,rdx
  40e9a0:	48 05 b8 c9 00 00    	add    rax,0xc9b8
  40e9a6:	8b 40 08             	mov    eax,DWORD PTR [rax+0x8]
  40e9a9:	41 01 c4             	add    r12d,eax
  40e9ac:	8b 45 cc             	mov    eax,DWORD PTR [rbp-0x34]
  40e9af:	48 98                	cdqe   
  40e9b1:	48 83 c0 2d          	add    rax,0x2d
  40e9b5:	48 8d 14 00          	lea    rdx,[rax+rax*1]
  40e9b9:	48 8b 45 88          	mov    rax,QWORD PTR [rbp-0x78]
  40e9bd:	48 01 d0             	add    rax,rdx
  40e9c0:	0f b7 18             	movzx  ebx,WORD PTR [rax]
  40e9c3:	0f b7 d3             	movzx  edx,bx
  40e9c6:	48 8b 85 08 ff ff ff 	mov    rax,QWORD PTR [rbp-0xf8]
  40e9cd:	48 63 d2             	movsxd rdx,edx
  40e9d0:	48 81 c2 9b 0c 00 00 	add    rdx,0xc9b
  40e9d7:	48 c1 e2 04          	shl    rdx,0x4
  40e9db:	48 01 d0             	add    rax,rdx
  40e9de:	8b 40 08             	mov    eax,DWORD PTR [rax+0x8]
  40e9e1:	41 01 c6             	add    r14d,eax
  40e9e4:	0f b7 d3             	movzx  edx,bx
  40e9e7:	48 8b 85 08 ff ff ff 	mov    rax,QWORD PTR [rbp-0xf8]
  40e9ee:	48 63 d2             	movsxd rdx,edx
  40e9f1:	48 c1 e2 04          	shl    rdx,0x4
  40e9f5:	48 01 d0             	add    rax,rdx
  40e9f8:	48 05 b4 c9 00 00    	add    rax,0xc9b4
  40e9fe:	8b 40 08             	mov    eax,DWORD PTR [rax+0x8]
  40ea01:	41 01 c5             	add    r13d,eax
  40ea04:	0f b7 d3             	movzx  edx,bx
  40ea07:	48 8b 85 08 ff ff ff 	mov    rax,QWORD PTR [rbp-0xf8]
  40ea0e:	48 63 d2             	movsxd rdx,edx
  40ea11:	48 c1 e2 04          	shl    rdx,0x4
  40ea15:	48 01 d0             	add    rax,rdx
  40ea18:	48 05 b8 c9 00 00    	add    rax,0xc9b8
  40ea1e:	8b 40 08             	mov    eax,DWORD PTR [rax+0x8]
  40ea21:	41 01 c4             	add    r12d,eax
  40ea24:	8b 45 cc             	mov    eax,DWORD PTR [rbp-0x34]
  40ea27:	48 98                	cdqe   
  40ea29:	48 83 c0 2e          	add    rax,0x2e
  40ea2d:	48 8d 14 00          	lea    rdx,[rax+rax*1]
  40ea31:	48 8b 45 88          	mov    rax,QWORD PTR [rbp-0x78]
  40ea35:	48 01 d0             	add    rax,rdx
  40ea38:	0f b7 18             	movzx  ebx,WORD PTR [rax]
  40ea3b:	0f b7 d3             	movzx  edx,bx
  40ea3e:	48 8b 85 08 ff ff ff 	mov    rax,QWORD PTR [rbp-0xf8]
  40ea45:	48 63 d2             	movsxd rdx,edx
  40ea48:	48 81 c2 9b 0c 00 00 	add    rdx,0xc9b
  40ea4f:	48 c1 e2 04          	shl    rdx,0x4
  40ea53:	48 01 d0             	add    rax,rdx
  40ea56:	8b 40 08             	mov    eax,DWORD PTR [rax+0x8]
  40ea59:	41 01 c6             	add    r14d,eax
  40ea5c:	0f b7 d3             	movzx  edx,bx
  40ea5f:	48 8b 85 08 ff ff ff 	mov    rax,QWORD PTR [rbp-0xf8]
  40ea66:	48 63 d2             	movsxd rdx,edx
  40ea69:	48 c1 e2 04          	shl    rdx,0x4
  40ea6d:	48 01 d0             	add    rax,rdx
  40ea70:	48 05 b4 c9 00 00    	add    rax,0xc9b4
  40ea76:	8b 40 08             	mov    eax,DWORD PTR [rax+0x8]
  40ea79:	41 01 c5             	add    r13d,eax
  40ea7c:	0f b7 d3             	movzx  edx,bx
  40ea7f:	48 8b 85 08 ff ff ff 	mov    rax,QWORD PTR [rbp-0xf8]
  40ea86:	48 63 d2             	movsxd rdx,edx
  40ea89:	48 c1 e2 04          	shl    rdx,0x4
  40ea8d:	48 01 d0             	add    rax,rdx
  40ea90:	48 05 b8 c9 00 00    	add    rax,0xc9b8
  40ea96:	8b 40 08             	mov    eax,DWORD PTR [rax+0x8]
  40ea99:	41 01 c4             	add    r12d,eax
  40ea9c:	8b 45 cc             	mov    eax,DWORD PTR [rbp-0x34]
  40ea9f:	48 98                	cdqe   
  40eaa1:	48 83 c0 2f          	add    rax,0x2f
  40eaa5:	48 8d 14 00          	lea    rdx,[rax+rax*1]
  40eaa9:	48 8b 45 88          	mov    rax,QWORD PTR [rbp-0x78]
  40eaad:	48 01 d0             	add    rax,rdx
  40eab0:	0f b7 18             	movzx  ebx,WORD PTR [rax]
  40eab3:	0f b7 d3             	movzx  edx,bx
  40eab6:	48 8b 85 08 ff ff ff 	mov    rax,QWORD PTR [rbp-0xf8]
  40eabd:	48 63 d2             	movsxd rdx,edx
  40eac0:	48 81 c2 9b 0c 00 00 	add    rdx,0xc9b
  40eac7:	48 c1 e2 04          	shl    rdx,0x4
  40eacb:	48 01 d0             	add    rax,rdx
  40eace:	8b 40 08             	mov    eax,DWORD PTR [rax+0x8]
  40ead1:	41 01 c6             	add    r14d,eax
  40ead4:	0f b7 d3             	movzx  edx,bx
  40ead7:	48 8b 85 08 ff ff ff 	mov    rax,QWORD PTR [rbp-0xf8]
  40eade:	48 63 d2             	movsxd rdx,edx
  40eae1:	48 c1 e2 04          	shl    rdx,0x4
  40eae5:	48 01 d0             	add    rax,rdx
  40eae8:	48 05 b4 c9 00 00    	add    rax,0xc9b4
  40eaee:	8b 40 08             	mov    eax,DWORD PTR [rax+0x8]
  40eaf1:	41 01 c5             	add    r13d,eax
  40eaf4:	0f b7 d3             	movzx  edx,bx
  40eaf7:	48 8b 85 08 ff ff ff 	mov    rax,QWORD PTR [rbp-0xf8]
  40eafe:	48 63 d2             	movsxd rdx,edx
  40eb01:	48 c1 e2 04          	shl    rdx,0x4
  40eb05:	48 01 d0             	add    rax,rdx
  40eb08:	48 05 b8 c9 00 00    	add    rax,0xc9b8
  40eb0e:	8b 40 08             	mov    eax,DWORD PTR [rax+0x8]
  40eb11:	41 01 c4             	add    r12d,eax
  40eb14:	8b 45 cc             	mov    eax,DWORD PTR [rbp-0x34]
  40eb17:	48 98                	cdqe   
  40eb19:	48 83 c0 30          	add    rax,0x30
  40eb1d:	48 8d 14 00          	lea    rdx,[rax+rax*1]
  40eb21:	48 8b 45 88          	mov    rax,QWORD PTR [rbp-0x78]
  40eb25:	48 01 d0             	add    rax,rdx
  40eb28:	0f b7 18             	movzx  ebx,WORD PTR [rax]
  40eb2b:	0f b7 d3             	movzx  edx,bx
  40eb2e:	48 8b 85 08 ff ff ff 	mov    rax,QWORD PTR [rbp-0xf8]
  40eb35:	48 63 d2             	movsxd rdx,edx
  40eb38:	48 81 c2 9b 0c 00 00 	add    rdx,0xc9b
  40eb3f:	48 c1 e2 04          	shl    rdx,0x4
  40eb43:	48 01 d0             	add    rax,rdx
  40eb46:	8b 40 08             	mov    eax,DWORD PTR [rax+0x8]
  40eb49:	41 01 c6             	add    r14d,eax
  40eb4c:	0f b7 d3             	movzx  edx,bx
  40eb4f:	48 8b 85 08 ff ff ff 	mov    rax,QWORD PTR [rbp-0xf8]
  40eb56:	48 63 d2             	movsxd rdx,edx
  40eb59:	48 c1 e2 04          	shl    rdx,0x4
  40eb5d:	48 01 d0             	add    rax,rdx
  40eb60:	48 05 b4 c9 00 00    	add    rax,0xc9b4
  40eb66:	8b 40 08             	mov    eax,DWORD PTR [rax+0x8]
  40eb69:	41 01 c5             	add    r13d,eax
  40eb6c:	0f b7 d3             	movzx  edx,bx
  40eb6f:	48 8b 85 08 ff ff ff 	mov    rax,QWORD PTR [rbp-0xf8]
  40eb76:	48 63 d2             	movsxd rdx,edx
  40eb79:	48 c1 e2 04          	shl    rdx,0x4
  40eb7d:	48 01 d0             	add    rax,rdx
  40eb80:	48 05 b8 c9 00 00    	add    rax,0xc9b8
  40eb86:	8b 40 08             	mov    eax,DWORD PTR [rax+0x8]
  40eb89:	41 01 c4             	add    r12d,eax
  40eb8c:	8b 45 cc             	mov    eax,DWORD PTR [rbp-0x34]
  40eb8f:	48 98                	cdqe   
  40eb91:	48 83 c0 31          	add    rax,0x31
  40eb95:	48 8d 14 00          	lea    rdx,[rax+rax*1]
  40eb99:	48 8b 45 88          	mov    rax,QWORD PTR [rbp-0x78]
  40eb9d:	48 01 d0             	add    rax,rdx
  40eba0:	0f b7 18             	movzx  ebx,WORD PTR [rax]
  40eba3:	0f b7 d3             	movzx  edx,bx
  40eba6:	48 8b 85 08 ff ff ff 	mov    rax,QWORD PTR [rbp-0xf8]
  40ebad:	48 63 d2             	movsxd rdx,edx
  40ebb0:	48 81 c2 9b 0c 00 00 	add    rdx,0xc9b
  40ebb7:	48 c1 e2 04          	shl    rdx,0x4
  40ebbb:	48 01 d0             	add    rax,rdx
  40ebbe:	8b 40 08             	mov    eax,DWORD PTR [rax+0x8]
  40ebc1:	41 01 c6             	add    r14d,eax
  40ebc4:	0f b7 d3             	movzx  edx,bx
  40ebc7:	48 8b 85 08 ff ff ff 	mov    rax,QWORD PTR [rbp-0xf8]
  40ebce:	48 63 d2             	movsxd rdx,edx
  40ebd1:	48 c1 e2 04          	shl    rdx,0x4
  40ebd5:	48 01 d0             	add    rax,rdx
  40ebd8:	48 05 b4 c9 00 00    	add    rax,0xc9b4
  40ebde:	8b 40 08             	mov    eax,DWORD PTR [rax+0x8]
  40ebe1:	41 01 c5             	add    r13d,eax
  40ebe4:	0f b7 d3             	movzx  edx,bx
  40ebe7:	48 8b 85 08 ff ff ff 	mov    rax,QWORD PTR [rbp-0xf8]
  40ebee:	48 63 d2             	movsxd rdx,edx
  40ebf1:	48 c1 e2 04          	shl    rdx,0x4
  40ebf5:	48 01 d0             	add    rax,rdx
  40ebf8:	48 05 b8 c9 00 00    	add    rax,0xc9b8
  40ebfe:	8b 40 08             	mov    eax,DWORD PTR [rax+0x8]
  40ec01:	41 01 c4             	add    r12d,eax
  40ec04:	44 89 f0             	mov    eax,r14d
  40ec07:	66 89 85 50 ff ff ff 	mov    WORD PTR [rbp-0xb0],ax
  40ec0e:	44 89 f0             	mov    eax,r14d
  40ec11:	c1 e8 10             	shr    eax,0x10
  40ec14:	66 89 85 52 ff ff ff 	mov    WORD PTR [rbp-0xae],ax
  40ec1b:	44 89 e8             	mov    eax,r13d
  40ec1e:	66 89 85 54 ff ff ff 	mov    WORD PTR [rbp-0xac],ax
  40ec25:	44 89 e8             	mov    eax,r13d
  40ec28:	c1 e8 10             	shr    eax,0x10
  40ec2b:	66 89 85 56 ff ff ff 	mov    WORD PTR [rbp-0xaa],ax
  40ec32:	44 89 e0             	mov    eax,r12d
  40ec35:	66 89 85 58 ff ff ff 	mov    WORD PTR [rbp-0xa8],ax
  40ec3c:	44 89 e0             	mov    eax,r12d
  40ec3f:	c1 e8 10             	shr    eax,0x10
  40ec42:	66 89 85 5a ff ff ff 	mov    WORD PTR [rbp-0xa6],ax
  40ec49:	e9 9c 00 00 00       	jmp    40ecea <sendMTFValues+0x1dfc>
  40ec4e:	8b 45 cc             	mov    eax,DWORD PTR [rbp-0x34]
  40ec51:	89 45 d4             	mov    DWORD PTR [rbp-0x2c],eax
  40ec54:	e9 85 00 00 00       	jmp    40ecde <sendMTFValues+0x1df0>
  40ec59:	8b 45 d4             	mov    eax,DWORD PTR [rbp-0x2c]
  40ec5c:	48 98                	cdqe   
  40ec5e:	48 8d 14 00          	lea    rdx,[rax+rax*1]
  40ec62:	48 8b 45 88          	mov    rax,QWORD PTR [rbp-0x78]
  40ec66:	48 01 d0             	add    rax,rdx
  40ec69:	0f b7 00             	movzx  eax,WORD PTR [rax]
  40ec6c:	66 89 85 7e ff ff ff 	mov    WORD PTR [rbp-0x82],ax
  40ec73:	c7 45 d8 00 00 00 00 	mov    DWORD PTR [rbp-0x28],0x0
  40ec7a:	eb 56                	jmp    40ecd2 <sendMTFValues+0x1de4>
  40ec7c:	8b 45 d8             	mov    eax,DWORD PTR [rbp-0x28]
  40ec7f:	48 98                	cdqe   
  40ec81:	0f b7 94 45 50 ff ff 	movzx  edx,WORD PTR [rbp+rax*2-0xb0]
  40ec88:	ff 
  40ec89:	0f b7 85 7e ff ff ff 	movzx  eax,WORD PTR [rbp-0x82]
  40ec90:	48 8b b5 08 ff ff ff 	mov    rsi,QWORD PTR [rbp-0xf8]
  40ec97:	48 63 c8             	movsxd rcx,eax
  40ec9a:	8b 45 d8             	mov    eax,DWORD PTR [rbp-0x28]
  40ec9d:	48 98                	cdqe   
  40ec9f:	48 01 c0             	add    rax,rax
  40eca2:	48 89 c7             	mov    rdi,rax
  40eca5:	48 c1 e7 07          	shl    rdi,0x7
  40eca9:	48 01 f8             	add    rax,rdi
  40ecac:	48 01 f0             	add    rax,rsi
  40ecaf:	48 01 c8             	add    rax,rcx
  40ecb2:	48 05 40 93 00 00    	add    rax,0x9340
  40ecb8:	0f b6 40 0c          	movzx  eax,BYTE PTR [rax+0xc]
  40ecbc:	0f b6 c0             	movzx  eax,al
  40ecbf:	01 c2                	add    edx,eax
  40ecc1:	8b 45 d8             	mov    eax,DWORD PTR [rbp-0x28]
  40ecc4:	48 98                	cdqe   
  40ecc6:	66 89 94 45 50 ff ff 	mov    WORD PTR [rbp+rax*2-0xb0],dx
  40eccd:	ff 
  40ecce:	83 45 d8 01          	add    DWORD PTR [rbp-0x28],0x1
  40ecd2:	8b 45 d8             	mov    eax,DWORD PTR [rbp-0x28]
  40ecd5:	3b 45 a4             	cmp    eax,DWORD PTR [rbp-0x5c]
  40ecd8:	7c a2                	jl     40ec7c <sendMTFValues+0x1d8e>
  40ecda:	83 45 d4 01          	add    DWORD PTR [rbp-0x2c],0x1
  40ecde:	8b 45 d4             	mov    eax,DWORD PTR [rbp-0x2c]
  40ece1:	3b 45 c8             	cmp    eax,DWORD PTR [rbp-0x38]
  40ece4:	0f 8e 6f ff ff ff    	jle    40ec59 <sendMTFValues+0x1d6b>
  40ecea:	c7 45 bc ff c9 9a 3b 	mov    DWORD PTR [rbp-0x44],0x3b9ac9ff
  40ecf1:	c7 45 c0 ff ff ff ff 	mov    DWORD PTR [rbp-0x40],0xffffffff
  40ecf8:	c7 45 d8 00 00 00 00 	mov    DWORD PTR [rbp-0x28],0x0
  40ecff:	eb 32                	jmp    40ed33 <sendMTFValues+0x1e45>
  40ed01:	8b 45 d8             	mov    eax,DWORD PTR [rbp-0x28]
  40ed04:	48 98                	cdqe   
  40ed06:	0f b7 84 45 50 ff ff 	movzx  eax,WORD PTR [rbp+rax*2-0xb0]
  40ed0d:	ff 
  40ed0e:	0f b7 c0             	movzx  eax,ax
  40ed11:	3b 45 bc             	cmp    eax,DWORD PTR [rbp-0x44]
  40ed14:	7d 19                	jge    40ed2f <sendMTFValues+0x1e41>
  40ed16:	8b 45 d8             	mov    eax,DWORD PTR [rbp-0x28]
  40ed19:	48 98                	cdqe   
  40ed1b:	0f b7 84 45 50 ff ff 	movzx  eax,WORD PTR [rbp+rax*2-0xb0]
  40ed22:	ff 
  40ed23:	0f b7 c0             	movzx  eax,ax
  40ed26:	89 45 bc             	mov    DWORD PTR [rbp-0x44],eax
  40ed29:	8b 45 d8             	mov    eax,DWORD PTR [rbp-0x28]
  40ed2c:	89 45 c0             	mov    DWORD PTR [rbp-0x40],eax
  40ed2f:	83 45 d8 01          	add    DWORD PTR [rbp-0x28],0x1
  40ed33:	8b 45 d8             	mov    eax,DWORD PTR [rbp-0x28]
  40ed36:	3b 45 a4             	cmp    eax,DWORD PTR [rbp-0x5c]
  40ed39:	7c c6                	jl     40ed01 <sendMTFValues+0x1e13>
  40ed3b:	8b 45 bc             	mov    eax,DWORD PTR [rbp-0x44]
  40ed3e:	01 45 c4             	add    DWORD PTR [rbp-0x3c],eax
  40ed41:	8b 45 c0             	mov    eax,DWORD PTR [rbp-0x40]
  40ed44:	48 98                	cdqe   
  40ed46:	8b 84 85 30 ff ff ff 	mov    eax,DWORD PTR [rbp+rax*4-0xd0]
  40ed4d:	8d 50 01             	lea    edx,[rax+0x1]
  40ed50:	8b 45 c0             	mov    eax,DWORD PTR [rbp-0x40]
  40ed53:	48 98                	cdqe   
  40ed55:	89 94 85 30 ff ff ff 	mov    DWORD PTR [rbp+rax*4-0xd0],edx
  40ed5c:	8b 45 c0             	mov    eax,DWORD PTR [rbp-0x40]
  40ed5f:	89 c1                	mov    ecx,eax
  40ed61:	48 8b 95 08 ff ff ff 	mov    rdx,QWORD PTR [rbp-0xf8]
  40ed68:	8b 45 b4             	mov    eax,DWORD PTR [rbp-0x4c]
  40ed6b:	48 98                	cdqe   
  40ed6d:	88 8c 02 a8 06 00 00 	mov    BYTE PTR [rdx+rax*1+0x6a8],cl
  40ed74:	83 45 b4 01          	add    DWORD PTR [rbp-0x4c],0x1
  40ed78:	83 7d a4 06          	cmp    DWORD PTR [rbp-0x5c],0x6
  40ed7c:	0f 85 c1 15 00 00    	jne    410343 <sendMTFValues+0x3455>
  40ed82:	8b 45 cc             	mov    eax,DWORD PTR [rbp-0x34]
  40ed85:	8b 55 c8             	mov    edx,DWORD PTR [rbp-0x38]
  40ed88:	89 d1                	mov    ecx,edx
  40ed8a:	29 c1                	sub    ecx,eax
  40ed8c:	89 c8                	mov    eax,ecx
  40ed8e:	83 f8 31             	cmp    eax,0x31
  40ed91:	0f 85 ac 15 00 00    	jne    410343 <sendMTFValues+0x3455>
  40ed97:	8b 45 cc             	mov    eax,DWORD PTR [rbp-0x34]
  40ed9a:	48 98                	cdqe   
  40ed9c:	48 8d 14 00          	lea    rdx,[rax+rax*1]
  40eda0:	48 8b 45 88          	mov    rax,QWORD PTR [rbp-0x78]
  40eda4:	48 01 d0             	add    rax,rdx
  40eda7:	0f b7 00             	movzx  eax,WORD PTR [rax]
  40edaa:	0f b7 d0             	movzx  edx,ax
  40edad:	48 8b 8d 08 ff ff ff 	mov    rcx,QWORD PTR [rbp-0xf8]
  40edb4:	48 63 f2             	movsxd rsi,edx
  40edb7:	8b 45 c0             	mov    eax,DWORD PTR [rbp-0x40]
  40edba:	48 98                	cdqe   
  40edbc:	48 01 c0             	add    rax,rax
  40edbf:	48 89 c7             	mov    rdi,rax
  40edc2:	48 c1 e7 07          	shl    rdi,0x7
  40edc6:	48 01 f8             	add    rax,rdi
  40edc9:	48 01 f0             	add    rax,rsi
  40edcc:	48 05 60 2c 00 00    	add    rax,0x2c60
  40edd2:	8b 44 81 08          	mov    eax,DWORD PTR [rcx+rax*4+0x8]
  40edd6:	8d 70 01             	lea    esi,[rax+0x1]
  40edd9:	48 8b 8d 08 ff ff ff 	mov    rcx,QWORD PTR [rbp-0xf8]
  40ede0:	48 63 d2             	movsxd rdx,edx
  40ede3:	8b 45 c0             	mov    eax,DWORD PTR [rbp-0x40]
  40ede6:	48 98                	cdqe   
  40ede8:	48 01 c0             	add    rax,rax
  40edeb:	48 89 c7             	mov    rdi,rax
  40edee:	48 c1 e7 07          	shl    rdi,0x7
  40edf2:	48 01 f8             	add    rax,rdi
  40edf5:	48 01 d0             	add    rax,rdx
  40edf8:	48 05 60 2c 00 00    	add    rax,0x2c60
  40edfe:	89 74 81 08          	mov    DWORD PTR [rcx+rax*4+0x8],esi
  40ee02:	8b 45 cc             	mov    eax,DWORD PTR [rbp-0x34]
  40ee05:	48 98                	cdqe   
  40ee07:	48 83 c0 01          	add    rax,0x1
  40ee0b:	48 8d 14 00          	lea    rdx,[rax+rax*1]
  40ee0f:	48 8b 45 88          	mov    rax,QWORD PTR [rbp-0x78]
  40ee13:	48 01 d0             	add    rax,rdx
  40ee16:	0f b7 00             	movzx  eax,WORD PTR [rax]
  40ee19:	0f b7 d0             	movzx  edx,ax
  40ee1c:	48 8b 8d 08 ff ff ff 	mov    rcx,QWORD PTR [rbp-0xf8]
  40ee23:	48 63 f2             	movsxd rsi,edx
  40ee26:	8b 45 c0             	mov    eax,DWORD PTR [rbp-0x40]
  40ee29:	48 98                	cdqe   
  40ee2b:	48 01 c0             	add    rax,rax
  40ee2e:	48 89 c7             	mov    rdi,rax
  40ee31:	48 c1 e7 07          	shl    rdi,0x7
  40ee35:	48 01 f8             	add    rax,rdi
  40ee38:	48 01 f0             	add    rax,rsi
  40ee3b:	48 05 60 2c 00 00    	add    rax,0x2c60
  40ee41:	8b 44 81 08          	mov    eax,DWORD PTR [rcx+rax*4+0x8]
  40ee45:	8d 70 01             	lea    esi,[rax+0x1]
  40ee48:	48 8b 8d 08 ff ff ff 	mov    rcx,QWORD PTR [rbp-0xf8]
  40ee4f:	48 63 d2             	movsxd rdx,edx
  40ee52:	8b 45 c0             	mov    eax,DWORD PTR [rbp-0x40]
  40ee55:	48 98                	cdqe   
  40ee57:	48 01 c0             	add    rax,rax
  40ee5a:	48 89 c7             	mov    rdi,rax
  40ee5d:	48 c1 e7 07          	shl    rdi,0x7
  40ee61:	48 01 f8             	add    rax,rdi
  40ee64:	48 01 d0             	add    rax,rdx
  40ee67:	48 05 60 2c 00 00    	add    rax,0x2c60
  40ee6d:	89 74 81 08          	mov    DWORD PTR [rcx+rax*4+0x8],esi
  40ee71:	8b 45 cc             	mov    eax,DWORD PTR [rbp-0x34]
  40ee74:	48 98                	cdqe   
  40ee76:	48 83 c0 02          	add    rax,0x2
  40ee7a:	48 8d 14 00          	lea    rdx,[rax+rax*1]
  40ee7e:	48 8b 45 88          	mov    rax,QWORD PTR [rbp-0x78]
  40ee82:	48 01 d0             	add    rax,rdx
  40ee85:	0f b7 00             	movzx  eax,WORD PTR [rax]
  40ee88:	0f b7 d0             	movzx  edx,ax
  40ee8b:	48 8b 8d 08 ff ff ff 	mov    rcx,QWORD PTR [rbp-0xf8]
  40ee92:	48 63 f2             	movsxd rsi,edx
  40ee95:	8b 45 c0             	mov    eax,DWORD PTR [rbp-0x40]
  40ee98:	48 98                	cdqe   
  40ee9a:	48 01 c0             	add    rax,rax
  40ee9d:	48 89 c7             	mov    rdi,rax
  40eea0:	48 c1 e7 07          	shl    rdi,0x7
  40eea4:	48 01 f8             	add    rax,rdi
  40eea7:	48 01 f0             	add    rax,rsi
  40eeaa:	48 05 60 2c 00 00    	add    rax,0x2c60
  40eeb0:	8b 44 81 08          	mov    eax,DWORD PTR [rcx+rax*4+0x8]
  40eeb4:	8d 70 01             	lea    esi,[rax+0x1]
  40eeb7:	48 8b 8d 08 ff ff ff 	mov    rcx,QWORD PTR [rbp-0xf8]
  40eebe:	48 63 d2             	movsxd rdx,edx
  40eec1:	8b 45 c0             	mov    eax,DWORD PTR [rbp-0x40]
  40eec4:	48 98                	cdqe   
  40eec6:	48 01 c0             	add    rax,rax
  40eec9:	48 89 c7             	mov    rdi,rax
  40eecc:	48 c1 e7 07          	shl    rdi,0x7
  40eed0:	48 01 f8             	add    rax,rdi
  40eed3:	48 01 d0             	add    rax,rdx
  40eed6:	48 05 60 2c 00 00    	add    rax,0x2c60
  40eedc:	89 74 81 08          	mov    DWORD PTR [rcx+rax*4+0x8],esi
  40eee0:	8b 45 cc             	mov    eax,DWORD PTR [rbp-0x34]
  40eee3:	48 98                	cdqe   
  40eee5:	48 83 c0 03          	add    rax,0x3
  40eee9:	48 8d 14 00          	lea    rdx,[rax+rax*1]
  40eeed:	48 8b 45 88          	mov    rax,QWORD PTR [rbp-0x78]
  40eef1:	48 01 d0             	add    rax,rdx
  40eef4:	0f b7 00             	movzx  eax,WORD PTR [rax]
  40eef7:	0f b7 d0             	movzx  edx,ax
  40eefa:	48 8b 8d 08 ff ff ff 	mov    rcx,QWORD PTR [rbp-0xf8]
  40ef01:	48 63 f2             	movsxd rsi,edx
  40ef04:	8b 45 c0             	mov    eax,DWORD PTR [rbp-0x40]
  40ef07:	48 98                	cdqe   
  40ef09:	48 01 c0             	add    rax,rax
  40ef0c:	48 89 c7             	mov    rdi,rax
  40ef0f:	48 c1 e7 07          	shl    rdi,0x7
  40ef13:	48 01 f8             	add    rax,rdi
  40ef16:	48 01 f0             	add    rax,rsi
  40ef19:	48 05 60 2c 00 00    	add    rax,0x2c60
  40ef1f:	8b 44 81 08          	mov    eax,DWORD PTR [rcx+rax*4+0x8]
  40ef23:	8d 70 01             	lea    esi,[rax+0x1]
  40ef26:	48 8b 8d 08 ff ff ff 	mov    rcx,QWORD PTR [rbp-0xf8]
  40ef2d:	48 63 d2             	movsxd rdx,edx
  40ef30:	8b 45 c0             	mov    eax,DWORD PTR [rbp-0x40]
  40ef33:	48 98                	cdqe   
  40ef35:	48 01 c0             	add    rax,rax
  40ef38:	48 89 c7             	mov    rdi,rax
  40ef3b:	48 c1 e7 07          	shl    rdi,0x7
  40ef3f:	48 01 f8             	add    rax,rdi
  40ef42:	48 01 d0             	add    rax,rdx
  40ef45:	48 05 60 2c 00 00    	add    rax,0x2c60
  40ef4b:	89 74 81 08          	mov    DWORD PTR [rcx+rax*4+0x8],esi
  40ef4f:	8b 45 cc             	mov    eax,DWORD PTR [rbp-0x34]
  40ef52:	48 98                	cdqe   
  40ef54:	48 83 c0 04          	add    rax,0x4
  40ef58:	48 8d 14 00          	lea    rdx,[rax+rax*1]
  40ef5c:	48 8b 45 88          	mov    rax,QWORD PTR [rbp-0x78]
  40ef60:	48 01 d0             	add    rax,rdx
  40ef63:	0f b7 00             	movzx  eax,WORD PTR [rax]
  40ef66:	0f b7 d0             	movzx  edx,ax
  40ef69:	48 8b 8d 08 ff ff ff 	mov    rcx,QWORD PTR [rbp-0xf8]
  40ef70:	48 63 f2             	movsxd rsi,edx
  40ef73:	8b 45 c0             	mov    eax,DWORD PTR [rbp-0x40]
  40ef76:	48 98                	cdqe   
  40ef78:	48 01 c0             	add    rax,rax
  40ef7b:	48 89 c7             	mov    rdi,rax
  40ef7e:	48 c1 e7 07          	shl    rdi,0x7
  40ef82:	48 01 f8             	add    rax,rdi
  40ef85:	48 01 f0             	add    rax,rsi
  40ef88:	48 05 60 2c 00 00    	add    rax,0x2c60
  40ef8e:	8b 44 81 08          	mov    eax,DWORD PTR [rcx+rax*4+0x8]
  40ef92:	8d 70 01             	lea    esi,[rax+0x1]
  40ef95:	48 8b 8d 08 ff ff ff 	mov    rcx,QWORD PTR [rbp-0xf8]
  40ef9c:	48 63 d2             	movsxd rdx,edx
  40ef9f:	8b 45 c0             	mov    eax,DWORD PTR [rbp-0x40]
  40efa2:	48 98                	cdqe   
  40efa4:	48 01 c0             	add    rax,rax
  40efa7:	48 89 c7             	mov    rdi,rax
  40efaa:	48 c1 e7 07          	shl    rdi,0x7
  40efae:	48 01 f8             	add    rax,rdi
  40efb1:	48 01 d0             	add    rax,rdx
  40efb4:	48 05 60 2c 00 00    	add    rax,0x2c60
  40efba:	89 74 81 08          	mov    DWORD PTR [rcx+rax*4+0x8],esi
  40efbe:	8b 45 cc             	mov    eax,DWORD PTR [rbp-0x34]
  40efc1:	48 98                	cdqe   
  40efc3:	48 83 c0 05          	add    rax,0x5
  40efc7:	48 8d 14 00          	lea    rdx,[rax+rax*1]
  40efcb:	48 8b 45 88          	mov    rax,QWORD PTR [rbp-0x78]
  40efcf:	48 01 d0             	add    rax,rdx
  40efd2:	0f b7 00             	movzx  eax,WORD PTR [rax]
  40efd5:	0f b7 d0             	movzx  edx,ax
  40efd8:	48 8b 8d 08 ff ff ff 	mov    rcx,QWORD PTR [rbp-0xf8]
  40efdf:	48 63 f2             	movsxd rsi,edx
  40efe2:	8b 45 c0             	mov    eax,DWORD PTR [rbp-0x40]
  40efe5:	48 98                	cdqe   
  40efe7:	48 01 c0             	add    rax,rax
  40efea:	48 89 c7             	mov    rdi,rax
  40efed:	48 c1 e7 07          	shl    rdi,0x7
  40eff1:	48 01 f8             	add    rax,rdi
  40eff4:	48 01 f0             	add    rax,rsi
  40eff7:	48 05 60 2c 00 00    	add    rax,0x2c60
  40effd:	8b 44 81 08          	mov    eax,DWORD PTR [rcx+rax*4+0x8]
  40f001:	8d 70 01             	lea    esi,[rax+0x1]
  40f004:	48 8b 8d 08 ff ff ff 	mov    rcx,QWORD PTR [rbp-0xf8]
  40f00b:	48 63 d2             	movsxd rdx,edx
  40f00e:	8b 45 c0             	mov    eax,DWORD PTR [rbp-0x40]
  40f011:	48 98                	cdqe   
  40f013:	48 01 c0             	add    rax,rax
  40f016:	48 89 c7             	mov    rdi,rax
  40f019:	48 c1 e7 07          	shl    rdi,0x7
  40f01d:	48 01 f8             	add    rax,rdi
  40f020:	48 01 d0             	add    rax,rdx
  40f023:	48 05 60 2c 00 00    	add    rax,0x2c60
  40f029:	89 74 81 08          	mov    DWORD PTR [rcx+rax*4+0x8],esi
  40f02d:	8b 45 cc             	mov    eax,DWORD PTR [rbp-0x34]
  40f030:	48 98                	cdqe   
  40f032:	48 83 c0 06          	add    rax,0x6
  40f036:	48 8d 14 00          	lea    rdx,[rax+rax*1]
  40f03a:	48 8b 45 88          	mov    rax,QWORD PTR [rbp-0x78]
  40f03e:	48 01 d0             	add    rax,rdx
  40f041:	0f b7 00             	movzx  eax,WORD PTR [rax]
  40f044:	0f b7 d0             	movzx  edx,ax
  40f047:	48 8b 8d 08 ff ff ff 	mov    rcx,QWORD PTR [rbp-0xf8]
  40f04e:	48 63 f2             	movsxd rsi,edx
  40f051:	8b 45 c0             	mov    eax,DWORD PTR [rbp-0x40]
  40f054:	48 98                	cdqe   
  40f056:	48 01 c0             	add    rax,rax
  40f059:	48 89 c7             	mov    rdi,rax
  40f05c:	48 c1 e7 07          	shl    rdi,0x7
  40f060:	48 01 f8             	add    rax,rdi
  40f063:	48 01 f0             	add    rax,rsi
  40f066:	48 05 60 2c 00 00    	add    rax,0x2c60
  40f06c:	8b 44 81 08          	mov    eax,DWORD PTR [rcx+rax*4+0x8]
  40f070:	8d 70 01             	lea    esi,[rax+0x1]
  40f073:	48 8b 8d 08 ff ff ff 	mov    rcx,QWORD PTR [rbp-0xf8]
  40f07a:	48 63 d2             	movsxd rdx,edx
  40f07d:	8b 45 c0             	mov    eax,DWORD PTR [rbp-0x40]
  40f080:	48 98                	cdqe   
  40f082:	48 01 c0             	add    rax,rax
  40f085:	48 89 c7             	mov    rdi,rax
  40f088:	48 c1 e7 07          	shl    rdi,0x7
  40f08c:	48 01 f8             	add    rax,rdi
  40f08f:	48 01 d0             	add    rax,rdx
  40f092:	48 05 60 2c 00 00    	add    rax,0x2c60
  40f098:	89 74 81 08          	mov    DWORD PTR [rcx+rax*4+0x8],esi
  40f09c:	8b 45 cc             	mov    eax,DWORD PTR [rbp-0x34]
  40f09f:	48 98                	cdqe   
  40f0a1:	48 83 c0 07          	add    rax,0x7
  40f0a5:	48 8d 14 00          	lea    rdx,[rax+rax*1]
  40f0a9:	48 8b 45 88          	mov    rax,QWORD PTR [rbp-0x78]
  40f0ad:	48 01 d0             	add    rax,rdx
  40f0b0:	0f b7 00             	movzx  eax,WORD PTR [rax]
  40f0b3:	0f b7 d0             	movzx  edx,ax
  40f0b6:	48 8b 8d 08 ff ff ff 	mov    rcx,QWORD PTR [rbp-0xf8]
  40f0bd:	48 63 f2             	movsxd rsi,edx
  40f0c0:	8b 45 c0             	mov    eax,DWORD PTR [rbp-0x40]
  40f0c3:	48 98                	cdqe   
  40f0c5:	48 01 c0             	add    rax,rax
  40f0c8:	48 89 c7             	mov    rdi,rax
  40f0cb:	48 c1 e7 07          	shl    rdi,0x7
  40f0cf:	48 01 f8             	add    rax,rdi
  40f0d2:	48 01 f0             	add    rax,rsi
  40f0d5:	48 05 60 2c 00 00    	add    rax,0x2c60
  40f0db:	8b 44 81 08          	mov    eax,DWORD PTR [rcx+rax*4+0x8]
  40f0df:	8d 70 01             	lea    esi,[rax+0x1]
  40f0e2:	48 8b 8d 08 ff ff ff 	mov    rcx,QWORD PTR [rbp-0xf8]
  40f0e9:	48 63 d2             	movsxd rdx,edx
  40f0ec:	8b 45 c0             	mov    eax,DWORD PTR [rbp-0x40]
  40f0ef:	48 98                	cdqe   
  40f0f1:	48 01 c0             	add    rax,rax
  40f0f4:	48 89 c7             	mov    rdi,rax
  40f0f7:	48 c1 e7 07          	shl    rdi,0x7
  40f0fb:	48 01 f8             	add    rax,rdi
  40f0fe:	48 01 d0             	add    rax,rdx
  40f101:	48 05 60 2c 00 00    	add    rax,0x2c60
  40f107:	89 74 81 08          	mov    DWORD PTR [rcx+rax*4+0x8],esi
  40f10b:	8b 45 cc             	mov    eax,DWORD PTR [rbp-0x34]
  40f10e:	48 98                	cdqe   
  40f110:	48 83 c0 08          	add    rax,0x8
  40f114:	48 8d 14 00          	lea    rdx,[rax+rax*1]
  40f118:	48 8b 45 88          	mov    rax,QWORD PTR [rbp-0x78]
  40f11c:	48 01 d0             	add    rax,rdx
  40f11f:	0f b7 00             	movzx  eax,WORD PTR [rax]
  40f122:	0f b7 d0             	movzx  edx,ax
  40f125:	48 8b 8d 08 ff ff ff 	mov    rcx,QWORD PTR [rbp-0xf8]
  40f12c:	48 63 f2             	movsxd rsi,edx
  40f12f:	8b 45 c0             	mov    eax,DWORD PTR [rbp-0x40]
  40f132:	48 98                	cdqe   
  40f134:	48 01 c0             	add    rax,rax
  40f137:	48 89 c7             	mov    rdi,rax
  40f13a:	48 c1 e7 07          	shl    rdi,0x7
  40f13e:	48 01 f8             	add    rax,rdi
  40f141:	48 01 f0             	add    rax,rsi
  40f144:	48 05 60 2c 00 00    	add    rax,0x2c60
  40f14a:	8b 44 81 08          	mov    eax,DWORD PTR [rcx+rax*4+0x8]
  40f14e:	8d 70 01             	lea    esi,[rax+0x1]
  40f151:	48 8b 8d 08 ff ff ff 	mov    rcx,QWORD PTR [rbp-0xf8]
  40f158:	48 63 d2             	movsxd rdx,edx
  40f15b:	8b 45 c0             	mov    eax,DWORD PTR [rbp-0x40]
  40f15e:	48 98                	cdqe   
  40f160:	48 01 c0             	add    rax,rax
  40f163:	48 89 c7             	mov    rdi,rax
  40f166:	48 c1 e7 07          	shl    rdi,0x7
  40f16a:	48 01 f8             	add    rax,rdi
  40f16d:	48 01 d0             	add    rax,rdx
  40f170:	48 05 60 2c 00 00    	add    rax,0x2c60
  40f176:	89 74 81 08          	mov    DWORD PTR [rcx+rax*4+0x8],esi
  40f17a:	8b 45 cc             	mov    eax,DWORD PTR [rbp-0x34]
  40f17d:	48 98                	cdqe   
  40f17f:	48 83 c0 09          	add    rax,0x9
  40f183:	48 8d 14 00          	lea    rdx,[rax+rax*1]
  40f187:	48 8b 45 88          	mov    rax,QWORD PTR [rbp-0x78]
  40f18b:	48 01 d0             	add    rax,rdx
  40f18e:	0f b7 00             	movzx  eax,WORD PTR [rax]
  40f191:	0f b7 d0             	movzx  edx,ax
  40f194:	48 8b 8d 08 ff ff ff 	mov    rcx,QWORD PTR [rbp-0xf8]
  40f19b:	48 63 f2             	movsxd rsi,edx
  40f19e:	8b 45 c0             	mov    eax,DWORD PTR [rbp-0x40]
  40f1a1:	48 98                	cdqe   
  40f1a3:	48 01 c0             	add    rax,rax
  40f1a6:	48 89 c7             	mov    rdi,rax
  40f1a9:	48 c1 e7 07          	shl    rdi,0x7
  40f1ad:	48 01 f8             	add    rax,rdi
  40f1b0:	48 01 f0             	add    rax,rsi
  40f1b3:	48 05 60 2c 00 00    	add    rax,0x2c60
  40f1b9:	8b 44 81 08          	mov    eax,DWORD PTR [rcx+rax*4+0x8]
  40f1bd:	8d 70 01             	lea    esi,[rax+0x1]
  40f1c0:	48 8b 8d 08 ff ff ff 	mov    rcx,QWORD PTR [rbp-0xf8]
  40f1c7:	48 63 d2             	movsxd rdx,edx
  40f1ca:	8b 45 c0             	mov    eax,DWORD PTR [rbp-0x40]
  40f1cd:	48 98                	cdqe   
  40f1cf:	48 01 c0             	add    rax,rax
  40f1d2:	48 89 c7             	mov    rdi,rax
  40f1d5:	48 c1 e7 07          	shl    rdi,0x7
  40f1d9:	48 01 f8             	add    rax,rdi
  40f1dc:	48 01 d0             	add    rax,rdx
  40f1df:	48 05 60 2c 00 00    	add    rax,0x2c60
  40f1e5:	89 74 81 08          	mov    DWORD PTR [rcx+rax*4+0x8],esi
  40f1e9:	8b 45 cc             	mov    eax,DWORD PTR [rbp-0x34]
  40f1ec:	48 98                	cdqe   
  40f1ee:	48 83 c0 0a          	add    rax,0xa
  40f1f2:	48 8d 14 00          	lea    rdx,[rax+rax*1]
  40f1f6:	48 8b 45 88          	mov    rax,QWORD PTR [rbp-0x78]
  40f1fa:	48 01 d0             	add    rax,rdx
  40f1fd:	0f b7 00             	movzx  eax,WORD PTR [rax]
  40f200:	0f b7 d0             	movzx  edx,ax
  40f203:	48 8b 8d 08 ff ff ff 	mov    rcx,QWORD PTR [rbp-0xf8]
  40f20a:	48 63 f2             	movsxd rsi,edx
  40f20d:	8b 45 c0             	mov    eax,DWORD PTR [rbp-0x40]
  40f210:	48 98                	cdqe   
  40f212:	48 01 c0             	add    rax,rax
  40f215:	48 89 c7             	mov    rdi,rax
  40f218:	48 c1 e7 07          	shl    rdi,0x7
  40f21c:	48 01 f8             	add    rax,rdi
  40f21f:	48 01 f0             	add    rax,rsi
  40f222:	48 05 60 2c 00 00    	add    rax,0x2c60
  40f228:	8b 44 81 08          	mov    eax,DWORD PTR [rcx+rax*4+0x8]
  40f22c:	8d 70 01             	lea    esi,[rax+0x1]
  40f22f:	48 8b 8d 08 ff ff ff 	mov    rcx,QWORD PTR [rbp-0xf8]
  40f236:	48 63 d2             	movsxd rdx,edx
  40f239:	8b 45 c0             	mov    eax,DWORD PTR [rbp-0x40]
  40f23c:	48 98                	cdqe   
  40f23e:	48 01 c0             	add    rax,rax
  40f241:	48 89 c7             	mov    rdi,rax
  40f244:	48 c1 e7 07          	shl    rdi,0x7
  40f248:	48 01 f8             	add    rax,rdi
  40f24b:	48 01 d0             	add    rax,rdx
  40f24e:	48 05 60 2c 00 00    	add    rax,0x2c60
  40f254:	89 74 81 08          	mov    DWORD PTR [rcx+rax*4+0x8],esi
  40f258:	8b 45 cc             	mov    eax,DWORD PTR [rbp-0x34]
  40f25b:	48 98                	cdqe   
  40f25d:	48 83 c0 0b          	add    rax,0xb
  40f261:	48 8d 14 00          	lea    rdx,[rax+rax*1]
  40f265:	48 8b 45 88          	mov    rax,QWORD PTR [rbp-0x78]
  40f269:	48 01 d0             	add    rax,rdx
  40f26c:	0f b7 00             	movzx  eax,WORD PTR [rax]
  40f26f:	0f b7 d0             	movzx  edx,ax
  40f272:	48 8b 8d 08 ff ff ff 	mov    rcx,QWORD PTR [rbp-0xf8]
  40f279:	48 63 f2             	movsxd rsi,edx
  40f27c:	8b 45 c0             	mov    eax,DWORD PTR [rbp-0x40]
  40f27f:	48 98                	cdqe   
  40f281:	48 01 c0             	add    rax,rax
  40f284:	48 89 c7             	mov    rdi,rax
  40f287:	48 c1 e7 07          	shl    rdi,0x7
  40f28b:	48 01 f8             	add    rax,rdi
  40f28e:	48 01 f0             	add    rax,rsi
  40f291:	48 05 60 2c 00 00    	add    rax,0x2c60
  40f297:	8b 44 81 08          	mov    eax,DWORD PTR [rcx+rax*4+0x8]
  40f29b:	8d 70 01             	lea    esi,[rax+0x1]
  40f29e:	48 8b 8d 08 ff ff ff 	mov    rcx,QWORD PTR [rbp-0xf8]
  40f2a5:	48 63 d2             	movsxd rdx,edx
  40f2a8:	8b 45 c0             	mov    eax,DWORD PTR [rbp-0x40]
  40f2ab:	48 98                	cdqe   
  40f2ad:	48 01 c0             	add    rax,rax
  40f2b0:	48 89 c7             	mov    rdi,rax
  40f2b3:	48 c1 e7 07          	shl    rdi,0x7
  40f2b7:	48 01 f8             	add    rax,rdi
  40f2ba:	48 01 d0             	add    rax,rdx
  40f2bd:	48 05 60 2c 00 00    	add    rax,0x2c60
  40f2c3:	89 74 81 08          	mov    DWORD PTR [rcx+rax*4+0x8],esi
  40f2c7:	8b 45 cc             	mov    eax,DWORD PTR [rbp-0x34]
  40f2ca:	48 98                	cdqe   
  40f2cc:	48 83 c0 0c          	add    rax,0xc
  40f2d0:	48 8d 14 00          	lea    rdx,[rax+rax*1]
  40f2d4:	48 8b 45 88          	mov    rax,QWORD PTR [rbp-0x78]
  40f2d8:	48 01 d0             	add    rax,rdx
  40f2db:	0f b7 00             	movzx  eax,WORD PTR [rax]
  40f2de:	0f b7 d0             	movzx  edx,ax
  40f2e1:	48 8b 8d 08 ff ff ff 	mov    rcx,QWORD PTR [rbp-0xf8]
  40f2e8:	48 63 f2             	movsxd rsi,edx
  40f2eb:	8b 45 c0             	mov    eax,DWORD PTR [rbp-0x40]
  40f2ee:	48 98                	cdqe   
  40f2f0:	48 01 c0             	add    rax,rax
  40f2f3:	48 89 c7             	mov    rdi,rax
  40f2f6:	48 c1 e7 07          	shl    rdi,0x7
  40f2fa:	48 01 f8             	add    rax,rdi
  40f2fd:	48 01 f0             	add    rax,rsi
  40f300:	48 05 60 2c 00 00    	add    rax,0x2c60
  40f306:	8b 44 81 08          	mov    eax,DWORD PTR [rcx+rax*4+0x8]
  40f30a:	8d 70 01             	lea    esi,[rax+0x1]
  40f30d:	48 8b 8d 08 ff ff ff 	mov    rcx,QWORD PTR [rbp-0xf8]
  40f314:	48 63 d2             	movsxd rdx,edx
  40f317:	8b 45 c0             	mov    eax,DWORD PTR [rbp-0x40]
  40f31a:	48 98                	cdqe   
  40f31c:	48 01 c0             	add    rax,rax
  40f31f:	48 89 c7             	mov    rdi,rax
  40f322:	48 c1 e7 07          	shl    rdi,0x7
  40f326:	48 01 f8             	add    rax,rdi
  40f329:	48 01 d0             	add    rax,rdx
  40f32c:	48 05 60 2c 00 00    	add    rax,0x2c60
  40f332:	89 74 81 08          	mov    DWORD PTR [rcx+rax*4+0x8],esi
  40f336:	8b 45 cc             	mov    eax,DWORD PTR [rbp-0x34]
  40f339:	48 98                	cdqe   
  40f33b:	48 83 c0 0d          	add    rax,0xd
  40f33f:	48 8d 14 00          	lea    rdx,[rax+rax*1]
  40f343:	48 8b 45 88          	mov    rax,QWORD PTR [rbp-0x78]
  40f347:	48 01 d0             	add    rax,rdx
  40f34a:	0f b7 00             	movzx  eax,WORD PTR [rax]
  40f34d:	0f b7 d0             	movzx  edx,ax
  40f350:	48 8b 8d 08 ff ff ff 	mov    rcx,QWORD PTR [rbp-0xf8]
  40f357:	48 63 f2             	movsxd rsi,edx
  40f35a:	8b 45 c0             	mov    eax,DWORD PTR [rbp-0x40]
  40f35d:	48 98                	cdqe   
  40f35f:	48 01 c0             	add    rax,rax
  40f362:	48 89 c7             	mov    rdi,rax
  40f365:	48 c1 e7 07          	shl    rdi,0x7
  40f369:	48 01 f8             	add    rax,rdi
  40f36c:	48 01 f0             	add    rax,rsi
  40f36f:	48 05 60 2c 00 00    	add    rax,0x2c60
  40f375:	8b 44 81 08          	mov    eax,DWORD PTR [rcx+rax*4+0x8]
  40f379:	8d 70 01             	lea    esi,[rax+0x1]
  40f37c:	48 8b 8d 08 ff ff ff 	mov    rcx,QWORD PTR [rbp-0xf8]
  40f383:	48 63 d2             	movsxd rdx,edx
  40f386:	8b 45 c0             	mov    eax,DWORD PTR [rbp-0x40]
  40f389:	48 98                	cdqe   
  40f38b:	48 01 c0             	add    rax,rax
  40f38e:	48 89 c7             	mov    rdi,rax
  40f391:	48 c1 e7 07          	shl    rdi,0x7
  40f395:	48 01 f8             	add    rax,rdi
  40f398:	48 01 d0             	add    rax,rdx
  40f39b:	48 05 60 2c 00 00    	add    rax,0x2c60
  40f3a1:	89 74 81 08          	mov    DWORD PTR [rcx+rax*4+0x8],esi
  40f3a5:	8b 45 cc             	mov    eax,DWORD PTR [rbp-0x34]
  40f3a8:	48 98                	cdqe   
  40f3aa:	48 83 c0 0e          	add    rax,0xe
  40f3ae:	48 8d 14 00          	lea    rdx,[rax+rax*1]
  40f3b2:	48 8b 45 88          	mov    rax,QWORD PTR [rbp-0x78]
  40f3b6:	48 01 d0             	add    rax,rdx
  40f3b9:	0f b7 00             	movzx  eax,WORD PTR [rax]
  40f3bc:	0f b7 d0             	movzx  edx,ax
  40f3bf:	48 8b 8d 08 ff ff ff 	mov    rcx,QWORD PTR [rbp-0xf8]
  40f3c6:	48 63 f2             	movsxd rsi,edx
  40f3c9:	8b 45 c0             	mov    eax,DWORD PTR [rbp-0x40]
  40f3cc:	48 98                	cdqe   
  40f3ce:	48 01 c0             	add    rax,rax
  40f3d1:	48 89 c7             	mov    rdi,rax
  40f3d4:	48 c1 e7 07          	shl    rdi,0x7
  40f3d8:	48 01 f8             	add    rax,rdi
  40f3db:	48 01 f0             	add    rax,rsi
  40f3de:	48 05 60 2c 00 00    	add    rax,0x2c60
  40f3e4:	8b 44 81 08          	mov    eax,DWORD PTR [rcx+rax*4+0x8]
  40f3e8:	8d 70 01             	lea    esi,[rax+0x1]
  40f3eb:	48 8b 8d 08 ff ff ff 	mov    rcx,QWORD PTR [rbp-0xf8]
  40f3f2:	48 63 d2             	movsxd rdx,edx
  40f3f5:	8b 45 c0             	mov    eax,DWORD PTR [rbp-0x40]
  40f3f8:	48 98                	cdqe   
  40f3fa:	48 01 c0             	add    rax,rax
  40f3fd:	48 89 c7             	mov    rdi,rax
  40f400:	48 c1 e7 07          	shl    rdi,0x7
  40f404:	48 01 f8             	add    rax,rdi
  40f407:	48 01 d0             	add    rax,rdx
  40f40a:	48 05 60 2c 00 00    	add    rax,0x2c60
  40f410:	89 74 81 08          	mov    DWORD PTR [rcx+rax*4+0x8],esi
  40f414:	8b 45 cc             	mov    eax,DWORD PTR [rbp-0x34]
  40f417:	48 98                	cdqe   
  40f419:	48 83 c0 0f          	add    rax,0xf
  40f41d:	48 8d 14 00          	lea    rdx,[rax+rax*1]
  40f421:	48 8b 45 88          	mov    rax,QWORD PTR [rbp-0x78]
  40f425:	48 01 d0             	add    rax,rdx
  40f428:	0f b7 00             	movzx  eax,WORD PTR [rax]
  40f42b:	0f b7 d0             	movzx  edx,ax
  40f42e:	48 8b 8d 08 ff ff ff 	mov    rcx,QWORD PTR [rbp-0xf8]
  40f435:	48 63 f2             	movsxd rsi,edx
  40f438:	8b 45 c0             	mov    eax,DWORD PTR [rbp-0x40]
  40f43b:	48 98                	cdqe   
  40f43d:	48 01 c0             	add    rax,rax
  40f440:	48 89 c7             	mov    rdi,rax
  40f443:	48 c1 e7 07          	shl    rdi,0x7
  40f447:	48 01 f8             	add    rax,rdi
  40f44a:	48 01 f0             	add    rax,rsi
  40f44d:	48 05 60 2c 00 00    	add    rax,0x2c60
  40f453:	8b 44 81 08          	mov    eax,DWORD PTR [rcx+rax*4+0x8]
  40f457:	8d 70 01             	lea    esi,[rax+0x1]
  40f45a:	48 8b 8d 08 ff ff ff 	mov    rcx,QWORD PTR [rbp-0xf8]
  40f461:	48 63 d2             	movsxd rdx,edx
  40f464:	8b 45 c0             	mov    eax,DWORD PTR [rbp-0x40]
  40f467:	48 98                	cdqe   
  40f469:	48 01 c0             	add    rax,rax
  40f46c:	48 89 c7             	mov    rdi,rax
  40f46f:	48 c1 e7 07          	shl    rdi,0x7
  40f473:	48 01 f8             	add    rax,rdi
  40f476:	48 01 d0             	add    rax,rdx
  40f479:	48 05 60 2c 00 00    	add    rax,0x2c60
  40f47f:	89 74 81 08          	mov    DWORD PTR [rcx+rax*4+0x8],esi
  40f483:	8b 45 cc             	mov    eax,DWORD PTR [rbp-0x34]
  40f486:	48 98                	cdqe   
  40f488:	48 83 c0 10          	add    rax,0x10
  40f48c:	48 8d 14 00          	lea    rdx,[rax+rax*1]
  40f490:	48 8b 45 88          	mov    rax,QWORD PTR [rbp-0x78]
  40f494:	48 01 d0             	add    rax,rdx
  40f497:	0f b7 00             	movzx  eax,WORD PTR [rax]
  40f49a:	0f b7 d0             	movzx  edx,ax
  40f49d:	48 8b 8d 08 ff ff ff 	mov    rcx,QWORD PTR [rbp-0xf8]
  40f4a4:	48 63 f2             	movsxd rsi,edx
  40f4a7:	8b 45 c0             	mov    eax,DWORD PTR [rbp-0x40]
  40f4aa:	48 98                	cdqe   
  40f4ac:	48 01 c0             	add    rax,rax
  40f4af:	48 89 c7             	mov    rdi,rax
  40f4b2:	48 c1 e7 07          	shl    rdi,0x7
  40f4b6:	48 01 f8             	add    rax,rdi
  40f4b9:	48 01 f0             	add    rax,rsi
  40f4bc:	48 05 60 2c 00 00    	add    rax,0x2c60
  40f4c2:	8b 44 81 08          	mov    eax,DWORD PTR [rcx+rax*4+0x8]
  40f4c6:	8d 70 01             	lea    esi,[rax+0x1]
  40f4c9:	48 8b 8d 08 ff ff ff 	mov    rcx,QWORD PTR [rbp-0xf8]
  40f4d0:	48 63 d2             	movsxd rdx,edx
  40f4d3:	8b 45 c0             	mov    eax,DWORD PTR [rbp-0x40]
  40f4d6:	48 98                	cdqe   
  40f4d8:	48 01 c0             	add    rax,rax
  40f4db:	48 89 c7             	mov    rdi,rax
  40f4de:	48 c1 e7 07          	shl    rdi,0x7
  40f4e2:	48 01 f8             	add    rax,rdi
  40f4e5:	48 01 d0             	add    rax,rdx
  40f4e8:	48 05 60 2c 00 00    	add    rax,0x2c60
  40f4ee:	89 74 81 08          	mov    DWORD PTR [rcx+rax*4+0x8],esi
  40f4f2:	8b 45 cc             	mov    eax,DWORD PTR [rbp-0x34]
  40f4f5:	48 98                	cdqe   
  40f4f7:	48 83 c0 11          	add    rax,0x11
  40f4fb:	48 8d 14 00          	lea    rdx,[rax+rax*1]
  40f4ff:	48 8b 45 88          	mov    rax,QWORD PTR [rbp-0x78]
  40f503:	48 01 d0             	add    rax,rdx
  40f506:	0f b7 00             	movzx  eax,WORD PTR [rax]
  40f509:	0f b7 d0             	movzx  edx,ax
  40f50c:	48 8b 8d 08 ff ff ff 	mov    rcx,QWORD PTR [rbp-0xf8]
  40f513:	48 63 f2             	movsxd rsi,edx
  40f516:	8b 45 c0             	mov    eax,DWORD PTR [rbp-0x40]
  40f519:	48 98                	cdqe   
  40f51b:	48 01 c0             	add    rax,rax
  40f51e:	48 89 c7             	mov    rdi,rax
  40f521:	48 c1 e7 07          	shl    rdi,0x7
  40f525:	48 01 f8             	add    rax,rdi
  40f528:	48 01 f0             	add    rax,rsi
  40f52b:	48 05 60 2c 00 00    	add    rax,0x2c60
  40f531:	8b 44 81 08          	mov    eax,DWORD PTR [rcx+rax*4+0x8]
  40f535:	8d 70 01             	lea    esi,[rax+0x1]
  40f538:	48 8b 8d 08 ff ff ff 	mov    rcx,QWORD PTR [rbp-0xf8]
  40f53f:	48 63 d2             	movsxd rdx,edx
  40f542:	8b 45 c0             	mov    eax,DWORD PTR [rbp-0x40]
  40f545:	48 98                	cdqe   
  40f547:	48 01 c0             	add    rax,rax
  40f54a:	48 89 c7             	mov    rdi,rax
  40f54d:	48 c1 e7 07          	shl    rdi,0x7
  40f551:	48 01 f8             	add    rax,rdi
  40f554:	48 01 d0             	add    rax,rdx
  40f557:	48 05 60 2c 00 00    	add    rax,0x2c60
  40f55d:	89 74 81 08          	mov    DWORD PTR [rcx+rax*4+0x8],esi
  40f561:	8b 45 cc             	mov    eax,DWORD PTR [rbp-0x34]
  40f564:	48 98                	cdqe   
  40f566:	48 83 c0 12          	add    rax,0x12
  40f56a:	48 8d 14 00          	lea    rdx,[rax+rax*1]
  40f56e:	48 8b 45 88          	mov    rax,QWORD PTR [rbp-0x78]
  40f572:	48 01 d0             	add    rax,rdx
  40f575:	0f b7 00             	movzx  eax,WORD PTR [rax]
  40f578:	0f b7 d0             	movzx  edx,ax
  40f57b:	48 8b 8d 08 ff ff ff 	mov    rcx,QWORD PTR [rbp-0xf8]
  40f582:	48 63 f2             	movsxd rsi,edx
  40f585:	8b 45 c0             	mov    eax,DWORD PTR [rbp-0x40]
  40f588:	48 98                	cdqe   
  40f58a:	48 01 c0             	add    rax,rax
  40f58d:	48 89 c7             	mov    rdi,rax
  40f590:	48 c1 e7 07          	shl    rdi,0x7
  40f594:	48 01 f8             	add    rax,rdi
  40f597:	48 01 f0             	add    rax,rsi
  40f59a:	48 05 60 2c 00 00    	add    rax,0x2c60
  40f5a0:	8b 44 81 08          	mov    eax,DWORD PTR [rcx+rax*4+0x8]
  40f5a4:	8d 70 01             	lea    esi,[rax+0x1]
  40f5a7:	48 8b 8d 08 ff ff ff 	mov    rcx,QWORD PTR [rbp-0xf8]
  40f5ae:	48 63 d2             	movsxd rdx,edx
  40f5b1:	8b 45 c0             	mov    eax,DWORD PTR [rbp-0x40]
  40f5b4:	48 98                	cdqe   
  40f5b6:	48 01 c0             	add    rax,rax
  40f5b9:	48 89 c7             	mov    rdi,rax
  40f5bc:	48 c1 e7 07          	shl    rdi,0x7
  40f5c0:	48 01 f8             	add    rax,rdi
  40f5c3:	48 01 d0             	add    rax,rdx
  40f5c6:	48 05 60 2c 00 00    	add    rax,0x2c60
  40f5cc:	89 74 81 08          	mov    DWORD PTR [rcx+rax*4+0x8],esi
  40f5d0:	8b 45 cc             	mov    eax,DWORD PTR [rbp-0x34]
  40f5d3:	48 98                	cdqe   
  40f5d5:	48 83 c0 13          	add    rax,0x13
  40f5d9:	48 8d 14 00          	lea    rdx,[rax+rax*1]
  40f5dd:	48 8b 45 88          	mov    rax,QWORD PTR [rbp-0x78]
  40f5e1:	48 01 d0             	add    rax,rdx
  40f5e4:	0f b7 00             	movzx  eax,WORD PTR [rax]
  40f5e7:	0f b7 d0             	movzx  edx,ax
  40f5ea:	48 8b 8d 08 ff ff ff 	mov    rcx,QWORD PTR [rbp-0xf8]
  40f5f1:	48 63 f2             	movsxd rsi,edx
  40f5f4:	8b 45 c0             	mov    eax,DWORD PTR [rbp-0x40]
  40f5f7:	48 98                	cdqe   
  40f5f9:	48 01 c0             	add    rax,rax
  40f5fc:	48 89 c7             	mov    rdi,rax
  40f5ff:	48 c1 e7 07          	shl    rdi,0x7
  40f603:	48 01 f8             	add    rax,rdi
  40f606:	48 01 f0             	add    rax,rsi
  40f609:	48 05 60 2c 00 00    	add    rax,0x2c60
  40f60f:	8b 44 81 08          	mov    eax,DWORD PTR [rcx+rax*4+0x8]
  40f613:	8d 70 01             	lea    esi,[rax+0x1]
  40f616:	48 8b 8d 08 ff ff ff 	mov    rcx,QWORD PTR [rbp-0xf8]
  40f61d:	48 63 d2             	movsxd rdx,edx
  40f620:	8b 45 c0             	mov    eax,DWORD PTR [rbp-0x40]
  40f623:	48 98                	cdqe   
  40f625:	48 01 c0             	add    rax,rax
  40f628:	48 89 c7             	mov    rdi,rax
  40f62b:	48 c1 e7 07          	shl    rdi,0x7
  40f62f:	48 01 f8             	add    rax,rdi
  40f632:	48 01 d0             	add    rax,rdx
  40f635:	48 05 60 2c 00 00    	add    rax,0x2c60
  40f63b:	89 74 81 08          	mov    DWORD PTR [rcx+rax*4+0x8],esi
  40f63f:	8b 45 cc             	mov    eax,DWORD PTR [rbp-0x34]
  40f642:	48 98                	cdqe   
  40f644:	48 83 c0 14          	add    rax,0x14
  40f648:	48 8d 14 00          	lea    rdx,[rax+rax*1]
  40f64c:	48 8b 45 88          	mov    rax,QWORD PTR [rbp-0x78]
  40f650:	48 01 d0             	add    rax,rdx
  40f653:	0f b7 00             	movzx  eax,WORD PTR [rax]
  40f656:	0f b7 d0             	movzx  edx,ax
  40f659:	48 8b 8d 08 ff ff ff 	mov    rcx,QWORD PTR [rbp-0xf8]
  40f660:	48 63 f2             	movsxd rsi,edx
  40f663:	8b 45 c0             	mov    eax,DWORD PTR [rbp-0x40]
  40f666:	48 98                	cdqe   
  40f668:	48 01 c0             	add    rax,rax
  40f66b:	48 89 c7             	mov    rdi,rax
  40f66e:	48 c1 e7 07          	shl    rdi,0x7
  40f672:	48 01 f8             	add    rax,rdi
  40f675:	48 01 f0             	add    rax,rsi
  40f678:	48 05 60 2c 00 00    	add    rax,0x2c60
  40f67e:	8b 44 81 08          	mov    eax,DWORD PTR [rcx+rax*4+0x8]
  40f682:	8d 70 01             	lea    esi,[rax+0x1]
  40f685:	48 8b 8d 08 ff ff ff 	mov    rcx,QWORD PTR [rbp-0xf8]
  40f68c:	48 63 d2             	movsxd rdx,edx
  40f68f:	8b 45 c0             	mov    eax,DWORD PTR [rbp-0x40]
  40f692:	48 98                	cdqe   
  40f694:	48 01 c0             	add    rax,rax
  40f697:	48 89 c7             	mov    rdi,rax
  40f69a:	48 c1 e7 07          	shl    rdi,0x7
  40f69e:	48 01 f8             	add    rax,rdi
  40f6a1:	48 01 d0             	add    rax,rdx
  40f6a4:	48 05 60 2c 00 00    	add    rax,0x2c60
  40f6aa:	89 74 81 08          	mov    DWORD PTR [rcx+rax*4+0x8],esi
  40f6ae:	8b 45 cc             	mov    eax,DWORD PTR [rbp-0x34]
  40f6b1:	48 98                	cdqe   
  40f6b3:	48 83 c0 15          	add    rax,0x15
  40f6b7:	48 8d 14 00          	lea    rdx,[rax+rax*1]
  40f6bb:	48 8b 45 88          	mov    rax,QWORD PTR [rbp-0x78]
  40f6bf:	48 01 d0             	add    rax,rdx
  40f6c2:	0f b7 00             	movzx  eax,WORD PTR [rax]
  40f6c5:	0f b7 d0             	movzx  edx,ax
  40f6c8:	48 8b 8d 08 ff ff ff 	mov    rcx,QWORD PTR [rbp-0xf8]
  40f6cf:	48 63 f2             	movsxd rsi,edx
  40f6d2:	8b 45 c0             	mov    eax,DWORD PTR [rbp-0x40]
  40f6d5:	48 98                	cdqe   
  40f6d7:	48 01 c0             	add    rax,rax
  40f6da:	48 89 c7             	mov    rdi,rax
  40f6dd:	48 c1 e7 07          	shl    rdi,0x7
  40f6e1:	48 01 f8             	add    rax,rdi
  40f6e4:	48 01 f0             	add    rax,rsi
  40f6e7:	48 05 60 2c 00 00    	add    rax,0x2c60
  40f6ed:	8b 44 81 08          	mov    eax,DWORD PTR [rcx+rax*4+0x8]
  40f6f1:	8d 70 01             	lea    esi,[rax+0x1]
  40f6f4:	48 8b 8d 08 ff ff ff 	mov    rcx,QWORD PTR [rbp-0xf8]
  40f6fb:	48 63 d2             	movsxd rdx,edx
  40f6fe:	8b 45 c0             	mov    eax,DWORD PTR [rbp-0x40]
  40f701:	48 98                	cdqe   
  40f703:	48 01 c0             	add    rax,rax
  40f706:	48 89 c7             	mov    rdi,rax
  40f709:	48 c1 e7 07          	shl    rdi,0x7
  40f70d:	48 01 f8             	add    rax,rdi
  40f710:	48 01 d0             	add    rax,rdx
  40f713:	48 05 60 2c 00 00    	add    rax,0x2c60
  40f719:	89 74 81 08          	mov    DWORD PTR [rcx+rax*4+0x8],esi
  40f71d:	8b 45 cc             	mov    eax,DWORD PTR [rbp-0x34]
  40f720:	48 98                	cdqe   
  40f722:	48 83 c0 16          	add    rax,0x16
  40f726:	48 8d 14 00          	lea    rdx,[rax+rax*1]
  40f72a:	48 8b 45 88          	mov    rax,QWORD PTR [rbp-0x78]
  40f72e:	48 01 d0             	add    rax,rdx
  40f731:	0f b7 00             	movzx  eax,WORD PTR [rax]
  40f734:	0f b7 d0             	movzx  edx,ax
  40f737:	48 8b 8d 08 ff ff ff 	mov    rcx,QWORD PTR [rbp-0xf8]
  40f73e:	48 63 f2             	movsxd rsi,edx
  40f741:	8b 45 c0             	mov    eax,DWORD PTR [rbp-0x40]
  40f744:	48 98                	cdqe   
  40f746:	48 01 c0             	add    rax,rax
  40f749:	48 89 c7             	mov    rdi,rax
  40f74c:	48 c1 e7 07          	shl    rdi,0x7
  40f750:	48 01 f8             	add    rax,rdi
  40f753:	48 01 f0             	add    rax,rsi
  40f756:	48 05 60 2c 00 00    	add    rax,0x2c60
  40f75c:	8b 44 81 08          	mov    eax,DWORD PTR [rcx+rax*4+0x8]
  40f760:	8d 70 01             	lea    esi,[rax+0x1]
  40f763:	48 8b 8d 08 ff ff ff 	mov    rcx,QWORD PTR [rbp-0xf8]
  40f76a:	48 63 d2             	movsxd rdx,edx
  40f76d:	8b 45 c0             	mov    eax,DWORD PTR [rbp-0x40]
  40f770:	48 98                	cdqe   
  40f772:	48 01 c0             	add    rax,rax
  40f775:	48 89 c7             	mov    rdi,rax
  40f778:	48 c1 e7 07          	shl    rdi,0x7
  40f77c:	48 01 f8             	add    rax,rdi
  40f77f:	48 01 d0             	add    rax,rdx
  40f782:	48 05 60 2c 00 00    	add    rax,0x2c60
  40f788:	89 74 81 08          	mov    DWORD PTR [rcx+rax*4+0x8],esi
  40f78c:	8b 45 cc             	mov    eax,DWORD PTR [rbp-0x34]
  40f78f:	48 98                	cdqe   
  40f791:	48 83 c0 17          	add    rax,0x17
  40f795:	48 8d 14 00          	lea    rdx,[rax+rax*1]
  40f799:	48 8b 45 88          	mov    rax,QWORD PTR [rbp-0x78]
  40f79d:	48 01 d0             	add    rax,rdx
  40f7a0:	0f b7 00             	movzx  eax,WORD PTR [rax]
  40f7a3:	0f b7 d0             	movzx  edx,ax
  40f7a6:	48 8b 8d 08 ff ff ff 	mov    rcx,QWORD PTR [rbp-0xf8]
  40f7ad:	48 63 f2             	movsxd rsi,edx
  40f7b0:	8b 45 c0             	mov    eax,DWORD PTR [rbp-0x40]
  40f7b3:	48 98                	cdqe   
  40f7b5:	48 01 c0             	add    rax,rax
  40f7b8:	48 89 c7             	mov    rdi,rax
  40f7bb:	48 c1 e7 07          	shl    rdi,0x7
  40f7bf:	48 01 f8             	add    rax,rdi
  40f7c2:	48 01 f0             	add    rax,rsi
  40f7c5:	48 05 60 2c 00 00    	add    rax,0x2c60
  40f7cb:	8b 44 81 08          	mov    eax,DWORD PTR [rcx+rax*4+0x8]
  40f7cf:	8d 70 01             	lea    esi,[rax+0x1]
  40f7d2:	48 8b 8d 08 ff ff ff 	mov    rcx,QWORD PTR [rbp-0xf8]
  40f7d9:	48 63 d2             	movsxd rdx,edx
  40f7dc:	8b 45 c0             	mov    eax,DWORD PTR [rbp-0x40]
  40f7df:	48 98                	cdqe   
  40f7e1:	48 01 c0             	add    rax,rax
  40f7e4:	48 89 c7             	mov    rdi,rax
  40f7e7:	48 c1 e7 07          	shl    rdi,0x7
  40f7eb:	48 01 f8             	add    rax,rdi
  40f7ee:	48 01 d0             	add    rax,rdx
  40f7f1:	48 05 60 2c 00 00    	add    rax,0x2c60
  40f7f7:	89 74 81 08          	mov    DWORD PTR [rcx+rax*4+0x8],esi
  40f7fb:	8b 45 cc             	mov    eax,DWORD PTR [rbp-0x34]
  40f7fe:	48 98                	cdqe   
  40f800:	48 83 c0 18          	add    rax,0x18
  40f804:	48 8d 14 00          	lea    rdx,[rax+rax*1]
  40f808:	48 8b 45 88          	mov    rax,QWORD PTR [rbp-0x78]
  40f80c:	48 01 d0             	add    rax,rdx
  40f80f:	0f b7 00             	movzx  eax,WORD PTR [rax]
  40f812:	0f b7 d0             	movzx  edx,ax
  40f815:	48 8b 8d 08 ff ff ff 	mov    rcx,QWORD PTR [rbp-0xf8]
  40f81c:	48 63 f2             	movsxd rsi,edx
  40f81f:	8b 45 c0             	mov    eax,DWORD PTR [rbp-0x40]
  40f822:	48 98                	cdqe   
  40f824:	48 01 c0             	add    rax,rax
  40f827:	48 89 c7             	mov    rdi,rax
  40f82a:	48 c1 e7 07          	shl    rdi,0x7
  40f82e:	48 01 f8             	add    rax,rdi
  40f831:	48 01 f0             	add    rax,rsi
  40f834:	48 05 60 2c 00 00    	add    rax,0x2c60
  40f83a:	8b 44 81 08          	mov    eax,DWORD PTR [rcx+rax*4+0x8]
  40f83e:	8d 70 01             	lea    esi,[rax+0x1]
  40f841:	48 8b 8d 08 ff ff ff 	mov    rcx,QWORD PTR [rbp-0xf8]
  40f848:	48 63 d2             	movsxd rdx,edx
  40f84b:	8b 45 c0             	mov    eax,DWORD PTR [rbp-0x40]
  40f84e:	48 98                	cdqe   
  40f850:	48 01 c0             	add    rax,rax
  40f853:	48 89 c7             	mov    rdi,rax
  40f856:	48 c1 e7 07          	shl    rdi,0x7
  40f85a:	48 01 f8             	add    rax,rdi
  40f85d:	48 01 d0             	add    rax,rdx
  40f860:	48 05 60 2c 00 00    	add    rax,0x2c60
  40f866:	89 74 81 08          	mov    DWORD PTR [rcx+rax*4+0x8],esi
  40f86a:	8b 45 cc             	mov    eax,DWORD PTR [rbp-0x34]
  40f86d:	48 98                	cdqe   
  40f86f:	48 83 c0 19          	add    rax,0x19
  40f873:	48 8d 14 00          	lea    rdx,[rax+rax*1]
  40f877:	48 8b 45 88          	mov    rax,QWORD PTR [rbp-0x78]
  40f87b:	48 01 d0             	add    rax,rdx
  40f87e:	0f b7 00             	movzx  eax,WORD PTR [rax]
  40f881:	0f b7 d0             	movzx  edx,ax
  40f884:	48 8b 8d 08 ff ff ff 	mov    rcx,QWORD PTR [rbp-0xf8]
  40f88b:	48 63 f2             	movsxd rsi,edx
  40f88e:	8b 45 c0             	mov    eax,DWORD PTR [rbp-0x40]
  40f891:	48 98                	cdqe   
  40f893:	48 01 c0             	add    rax,rax
  40f896:	48 89 c7             	mov    rdi,rax
  40f899:	48 c1 e7 07          	shl    rdi,0x7
  40f89d:	48 01 f8             	add    rax,rdi
  40f8a0:	48 01 f0             	add    rax,rsi
  40f8a3:	48 05 60 2c 00 00    	add    rax,0x2c60
  40f8a9:	8b 44 81 08          	mov    eax,DWORD PTR [rcx+rax*4+0x8]
  40f8ad:	8d 70 01             	lea    esi,[rax+0x1]
  40f8b0:	48 8b 8d 08 ff ff ff 	mov    rcx,QWORD PTR [rbp-0xf8]
  40f8b7:	48 63 d2             	movsxd rdx,edx
  40f8ba:	8b 45 c0             	mov    eax,DWORD PTR [rbp-0x40]
  40f8bd:	48 98                	cdqe   
  40f8bf:	48 01 c0             	add    rax,rax
  40f8c2:	48 89 c7             	mov    rdi,rax
  40f8c5:	48 c1 e7 07          	shl    rdi,0x7
  40f8c9:	48 01 f8             	add    rax,rdi
  40f8cc:	48 01 d0             	add    rax,rdx
  40f8cf:	48 05 60 2c 00 00    	add    rax,0x2c60
  40f8d5:	89 74 81 08          	mov    DWORD PTR [rcx+rax*4+0x8],esi
  40f8d9:	8b 45 cc             	mov    eax,DWORD PTR [rbp-0x34]
  40f8dc:	48 98                	cdqe   
  40f8de:	48 83 c0 1a          	add    rax,0x1a
  40f8e2:	48 8d 14 00          	lea    rdx,[rax+rax*1]
  40f8e6:	48 8b 45 88          	mov    rax,QWORD PTR [rbp-0x78]
  40f8ea:	48 01 d0             	add    rax,rdx
  40f8ed:	0f b7 00             	movzx  eax,WORD PTR [rax]
  40f8f0:	0f b7 d0             	movzx  edx,ax
  40f8f3:	48 8b 8d 08 ff ff ff 	mov    rcx,QWORD PTR [rbp-0xf8]
  40f8fa:	48 63 f2             	movsxd rsi,edx
  40f8fd:	8b 45 c0             	mov    eax,DWORD PTR [rbp-0x40]
  40f900:	48 98                	cdqe   
  40f902:	48 01 c0             	add    rax,rax
  40f905:	48 89 c7             	mov    rdi,rax
  40f908:	48 c1 e7 07          	shl    rdi,0x7
  40f90c:	48 01 f8             	add    rax,rdi
  40f90f:	48 01 f0             	add    rax,rsi
  40f912:	48 05 60 2c 00 00    	add    rax,0x2c60
  40f918:	8b 44 81 08          	mov    eax,DWORD PTR [rcx+rax*4+0x8]
  40f91c:	8d 70 01             	lea    esi,[rax+0x1]
  40f91f:	48 8b 8d 08 ff ff ff 	mov    rcx,QWORD PTR [rbp-0xf8]
  40f926:	48 63 d2             	movsxd rdx,edx
  40f929:	8b 45 c0             	mov    eax,DWORD PTR [rbp-0x40]
  40f92c:	48 98                	cdqe   
  40f92e:	48 01 c0             	add    rax,rax
  40f931:	48 89 c7             	mov    rdi,rax
  40f934:	48 c1 e7 07          	shl    rdi,0x7
  40f938:	48 01 f8             	add    rax,rdi
  40f93b:	48 01 d0             	add    rax,rdx
  40f93e:	48 05 60 2c 00 00    	add    rax,0x2c60
  40f944:	89 74 81 08          	mov    DWORD PTR [rcx+rax*4+0x8],esi
  40f948:	8b 45 cc             	mov    eax,DWORD PTR [rbp-0x34]
  40f94b:	48 98                	cdqe   
  40f94d:	48 83 c0 1b          	add    rax,0x1b
  40f951:	48 8d 14 00          	lea    rdx,[rax+rax*1]
  40f955:	48 8b 45 88          	mov    rax,QWORD PTR [rbp-0x78]
  40f959:	48 01 d0             	add    rax,rdx
  40f95c:	0f b7 00             	movzx  eax,WORD PTR [rax]
  40f95f:	0f b7 d0             	movzx  edx,ax
  40f962:	48 8b 8d 08 ff ff ff 	mov    rcx,QWORD PTR [rbp-0xf8]
  40f969:	48 63 f2             	movsxd rsi,edx
  40f96c:	8b 45 c0             	mov    eax,DWORD PTR [rbp-0x40]
  40f96f:	48 98                	cdqe   
  40f971:	48 01 c0             	add    rax,rax
  40f974:	48 89 c7             	mov    rdi,rax
  40f977:	48 c1 e7 07          	shl    rdi,0x7
  40f97b:	48 01 f8             	add    rax,rdi
  40f97e:	48 01 f0             	add    rax,rsi
  40f981:	48 05 60 2c 00 00    	add    rax,0x2c60
  40f987:	8b 44 81 08          	mov    eax,DWORD PTR [rcx+rax*4+0x8]
  40f98b:	8d 70 01             	lea    esi,[rax+0x1]
  40f98e:	48 8b 8d 08 ff ff ff 	mov    rcx,QWORD PTR [rbp-0xf8]
  40f995:	48 63 d2             	movsxd rdx,edx
  40f998:	8b 45 c0             	mov    eax,DWORD PTR [rbp-0x40]
  40f99b:	48 98                	cdqe   
  40f99d:	48 01 c0             	add    rax,rax
  40f9a0:	48 89 c7             	mov    rdi,rax
  40f9a3:	48 c1 e7 07          	shl    rdi,0x7
  40f9a7:	48 01 f8             	add    rax,rdi
  40f9aa:	48 01 d0             	add    rax,rdx
  40f9ad:	48 05 60 2c 00 00    	add    rax,0x2c60
  40f9b3:	89 74 81 08          	mov    DWORD PTR [rcx+rax*4+0x8],esi
  40f9b7:	8b 45 cc             	mov    eax,DWORD PTR [rbp-0x34]
  40f9ba:	48 98                	cdqe   
  40f9bc:	48 83 c0 1c          	add    rax,0x1c
  40f9c0:	48 8d 14 00          	lea    rdx,[rax+rax*1]
  40f9c4:	48 8b 45 88          	mov    rax,QWORD PTR [rbp-0x78]
  40f9c8:	48 01 d0             	add    rax,rdx
  40f9cb:	0f b7 00             	movzx  eax,WORD PTR [rax]
  40f9ce:	0f b7 d0             	movzx  edx,ax
  40f9d1:	48 8b 8d 08 ff ff ff 	mov    rcx,QWORD PTR [rbp-0xf8]
  40f9d8:	48 63 f2             	movsxd rsi,edx
  40f9db:	8b 45 c0             	mov    eax,DWORD PTR [rbp-0x40]
  40f9de:	48 98                	cdqe   
  40f9e0:	48 01 c0             	add    rax,rax
  40f9e3:	48 89 c7             	mov    rdi,rax
  40f9e6:	48 c1 e7 07          	shl    rdi,0x7
  40f9ea:	48 01 f8             	add    rax,rdi
  40f9ed:	48 01 f0             	add    rax,rsi
  40f9f0:	48 05 60 2c 00 00    	add    rax,0x2c60
  40f9f6:	8b 44 81 08          	mov    eax,DWORD PTR [rcx+rax*4+0x8]
  40f9fa:	8d 70 01             	lea    esi,[rax+0x1]
  40f9fd:	48 8b 8d 08 ff ff ff 	mov    rcx,QWORD PTR [rbp-0xf8]
  40fa04:	48 63 d2             	movsxd rdx,edx
  40fa07:	8b 45 c0             	mov    eax,DWORD PTR [rbp-0x40]
  40fa0a:	48 98                	cdqe   
  40fa0c:	48 01 c0             	add    rax,rax
  40fa0f:	48 89 c7             	mov    rdi,rax
  40fa12:	48 c1 e7 07          	shl    rdi,0x7
  40fa16:	48 01 f8             	add    rax,rdi
  40fa19:	48 01 d0             	add    rax,rdx
  40fa1c:	48 05 60 2c 00 00    	add    rax,0x2c60
  40fa22:	89 74 81 08          	mov    DWORD PTR [rcx+rax*4+0x8],esi
  40fa26:	8b 45 cc             	mov    eax,DWORD PTR [rbp-0x34]
  40fa29:	48 98                	cdqe   
  40fa2b:	48 83 c0 1d          	add    rax,0x1d
  40fa2f:	48 8d 14 00          	lea    rdx,[rax+rax*1]
  40fa33:	48 8b 45 88          	mov    rax,QWORD PTR [rbp-0x78]
  40fa37:	48 01 d0             	add    rax,rdx
  40fa3a:	0f b7 00             	movzx  eax,WORD PTR [rax]
  40fa3d:	0f b7 d0             	movzx  edx,ax
  40fa40:	48 8b 8d 08 ff ff ff 	mov    rcx,QWORD PTR [rbp-0xf8]
  40fa47:	48 63 f2             	movsxd rsi,edx
  40fa4a:	8b 45 c0             	mov    eax,DWORD PTR [rbp-0x40]
  40fa4d:	48 98                	cdqe   
  40fa4f:	48 01 c0             	add    rax,rax
  40fa52:	48 89 c7             	mov    rdi,rax
  40fa55:	48 c1 e7 07          	shl    rdi,0x7
  40fa59:	48 01 f8             	add    rax,rdi
  40fa5c:	48 01 f0             	add    rax,rsi
  40fa5f:	48 05 60 2c 00 00    	add    rax,0x2c60
  40fa65:	8b 44 81 08          	mov    eax,DWORD PTR [rcx+rax*4+0x8]
  40fa69:	8d 70 01             	lea    esi,[rax+0x1]
  40fa6c:	48 8b 8d 08 ff ff ff 	mov    rcx,QWORD PTR [rbp-0xf8]
  40fa73:	48 63 d2             	movsxd rdx,edx
  40fa76:	8b 45 c0             	mov    eax,DWORD PTR [rbp-0x40]
  40fa79:	48 98                	cdqe   
  40fa7b:	48 01 c0             	add    rax,rax
  40fa7e:	48 89 c7             	mov    rdi,rax
  40fa81:	48 c1 e7 07          	shl    rdi,0x7
  40fa85:	48 01 f8             	add    rax,rdi
  40fa88:	48 01 d0             	add    rax,rdx
  40fa8b:	48 05 60 2c 00 00    	add    rax,0x2c60
  40fa91:	89 74 81 08          	mov    DWORD PTR [rcx+rax*4+0x8],esi
  40fa95:	8b 45 cc             	mov    eax,DWORD PTR [rbp-0x34]
  40fa98:	48 98                	cdqe   
  40fa9a:	48 83 c0 1e          	add    rax,0x1e
  40fa9e:	48 8d 14 00          	lea    rdx,[rax+rax*1]
  40faa2:	48 8b 45 88          	mov    rax,QWORD PTR [rbp-0x78]
  40faa6:	48 01 d0             	add    rax,rdx
  40faa9:	0f b7 00             	movzx  eax,WORD PTR [rax]
  40faac:	0f b7 d0             	movzx  edx,ax
  40faaf:	48 8b 8d 08 ff ff ff 	mov    rcx,QWORD PTR [rbp-0xf8]
  40fab6:	48 63 f2             	movsxd rsi,edx
  40fab9:	8b 45 c0             	mov    eax,DWORD PTR [rbp-0x40]
  40fabc:	48 98                	cdqe   
  40fabe:	48 01 c0             	add    rax,rax
  40fac1:	48 89 c7             	mov    rdi,rax
  40fac4:	48 c1 e7 07          	shl    rdi,0x7
  40fac8:	48 01 f8             	add    rax,rdi
  40facb:	48 01 f0             	add    rax,rsi
  40face:	48 05 60 2c 00 00    	add    rax,0x2c60
  40fad4:	8b 44 81 08          	mov    eax,DWORD PTR [rcx+rax*4+0x8]
  40fad8:	8d 70 01             	lea    esi,[rax+0x1]
  40fadb:	48 8b 8d 08 ff ff ff 	mov    rcx,QWORD PTR [rbp-0xf8]
  40fae2:	48 63 d2             	movsxd rdx,edx
  40fae5:	8b 45 c0             	mov    eax,DWORD PTR [rbp-0x40]
  40fae8:	48 98                	cdqe   
  40faea:	48 01 c0             	add    rax,rax
  40faed:	48 89 c7             	mov    rdi,rax
  40faf0:	48 c1 e7 07          	shl    rdi,0x7
  40faf4:	48 01 f8             	add    rax,rdi
  40faf7:	48 01 d0             	add    rax,rdx
  40fafa:	48 05 60 2c 00 00    	add    rax,0x2c60
  40fb00:	89 74 81 08          	mov    DWORD PTR [rcx+rax*4+0x8],esi
  40fb04:	8b 45 cc             	mov    eax,DWORD PTR [rbp-0x34]
  40fb07:	48 98                	cdqe   
  40fb09:	48 83 c0 1f          	add    rax,0x1f
  40fb0d:	48 8d 14 00          	lea    rdx,[rax+rax*1]
  40fb11:	48 8b 45 88          	mov    rax,QWORD PTR [rbp-0x78]
  40fb15:	48 01 d0             	add    rax,rdx
  40fb18:	0f b7 00             	movzx  eax,WORD PTR [rax]
  40fb1b:	0f b7 d0             	movzx  edx,ax
  40fb1e:	48 8b 8d 08 ff ff ff 	mov    rcx,QWORD PTR [rbp-0xf8]
  40fb25:	48 63 f2             	movsxd rsi,edx
  40fb28:	8b 45 c0             	mov    eax,DWORD PTR [rbp-0x40]
  40fb2b:	48 98                	cdqe   
  40fb2d:	48 01 c0             	add    rax,rax
  40fb30:	48 89 c7             	mov    rdi,rax
  40fb33:	48 c1 e7 07          	shl    rdi,0x7
  40fb37:	48 01 f8             	add    rax,rdi
  40fb3a:	48 01 f0             	add    rax,rsi
  40fb3d:	48 05 60 2c 00 00    	add    rax,0x2c60
  40fb43:	8b 44 81 08          	mov    eax,DWORD PTR [rcx+rax*4+0x8]
  40fb47:	8d 70 01             	lea    esi,[rax+0x1]
  40fb4a:	48 8b 8d 08 ff ff ff 	mov    rcx,QWORD PTR [rbp-0xf8]
  40fb51:	48 63 d2             	movsxd rdx,edx
  40fb54:	8b 45 c0             	mov    eax,DWORD PTR [rbp-0x40]
  40fb57:	48 98                	cdqe   
  40fb59:	48 01 c0             	add    rax,rax
  40fb5c:	48 89 c7             	mov    rdi,rax
  40fb5f:	48 c1 e7 07          	shl    rdi,0x7
  40fb63:	48 01 f8             	add    rax,rdi
  40fb66:	48 01 d0             	add    rax,rdx
  40fb69:	48 05 60 2c 00 00    	add    rax,0x2c60
  40fb6f:	89 74 81 08          	mov    DWORD PTR [rcx+rax*4+0x8],esi
  40fb73:	8b 45 cc             	mov    eax,DWORD PTR [rbp-0x34]
  40fb76:	48 98                	cdqe   
  40fb78:	48 83 c0 20          	add    rax,0x20
  40fb7c:	48 8d 14 00          	lea    rdx,[rax+rax*1]
  40fb80:	48 8b 45 88          	mov    rax,QWORD PTR [rbp-0x78]
  40fb84:	48 01 d0             	add    rax,rdx
  40fb87:	0f b7 00             	movzx  eax,WORD PTR [rax]
  40fb8a:	0f b7 d0             	movzx  edx,ax
  40fb8d:	48 8b 8d 08 ff ff ff 	mov    rcx,QWORD PTR [rbp-0xf8]
  40fb94:	48 63 f2             	movsxd rsi,edx
  40fb97:	8b 45 c0             	mov    eax,DWORD PTR [rbp-0x40]
  40fb9a:	48 98                	cdqe   
  40fb9c:	48 01 c0             	add    rax,rax
  40fb9f:	48 89 c7             	mov    rdi,rax
  40fba2:	48 c1 e7 07          	shl    rdi,0x7
  40fba6:	48 01 f8             	add    rax,rdi
  40fba9:	48 01 f0             	add    rax,rsi
  40fbac:	48 05 60 2c 00 00    	add    rax,0x2c60
  40fbb2:	8b 44 81 08          	mov    eax,DWORD PTR [rcx+rax*4+0x8]
  40fbb6:	8d 70 01             	lea    esi,[rax+0x1]
  40fbb9:	48 8b 8d 08 ff ff ff 	mov    rcx,QWORD PTR [rbp-0xf8]
  40fbc0:	48 63 d2             	movsxd rdx,edx
  40fbc3:	8b 45 c0             	mov    eax,DWORD PTR [rbp-0x40]
  40fbc6:	48 98                	cdqe   
  40fbc8:	48 01 c0             	add    rax,rax
  40fbcb:	48 89 c7             	mov    rdi,rax
  40fbce:	48 c1 e7 07          	shl    rdi,0x7
  40fbd2:	48 01 f8             	add    rax,rdi
  40fbd5:	48 01 d0             	add    rax,rdx
  40fbd8:	48 05 60 2c 00 00    	add    rax,0x2c60
  40fbde:	89 74 81 08          	mov    DWORD PTR [rcx+rax*4+0x8],esi
  40fbe2:	8b 45 cc             	mov    eax,DWORD PTR [rbp-0x34]
  40fbe5:	48 98                	cdqe   
  40fbe7:	48 83 c0 21          	add    rax,0x21
  40fbeb:	48 8d 14 00          	lea    rdx,[rax+rax*1]
  40fbef:	48 8b 45 88          	mov    rax,QWORD PTR [rbp-0x78]
  40fbf3:	48 01 d0             	add    rax,rdx
  40fbf6:	0f b7 00             	movzx  eax,WORD PTR [rax]
  40fbf9:	0f b7 d0             	movzx  edx,ax
  40fbfc:	48 8b 8d 08 ff ff ff 	mov    rcx,QWORD PTR [rbp-0xf8]
  40fc03:	48 63 f2             	movsxd rsi,edx
  40fc06:	8b 45 c0             	mov    eax,DWORD PTR [rbp-0x40]
  40fc09:	48 98                	cdqe   
  40fc0b:	48 01 c0             	add    rax,rax
  40fc0e:	48 89 c7             	mov    rdi,rax
  40fc11:	48 c1 e7 07          	shl    rdi,0x7
  40fc15:	48 01 f8             	add    rax,rdi
  40fc18:	48 01 f0             	add    rax,rsi
  40fc1b:	48 05 60 2c 00 00    	add    rax,0x2c60
  40fc21:	8b 44 81 08          	mov    eax,DWORD PTR [rcx+rax*4+0x8]
  40fc25:	8d 70 01             	lea    esi,[rax+0x1]
  40fc28:	48 8b 8d 08 ff ff ff 	mov    rcx,QWORD PTR [rbp-0xf8]
  40fc2f:	48 63 d2             	movsxd rdx,edx
  40fc32:	8b 45 c0             	mov    eax,DWORD PTR [rbp-0x40]
  40fc35:	48 98                	cdqe   
  40fc37:	48 01 c0             	add    rax,rax
  40fc3a:	48 89 c7             	mov    rdi,rax
  40fc3d:	48 c1 e7 07          	shl    rdi,0x7
  40fc41:	48 01 f8             	add    rax,rdi
  40fc44:	48 01 d0             	add    rax,rdx
  40fc47:	48 05 60 2c 00 00    	add    rax,0x2c60
  40fc4d:	89 74 81 08          	mov    DWORD PTR [rcx+rax*4+0x8],esi
  40fc51:	8b 45 cc             	mov    eax,DWORD PTR [rbp-0x34]
  40fc54:	48 98                	cdqe   
  40fc56:	48 83 c0 22          	add    rax,0x22
  40fc5a:	48 8d 14 00          	lea    rdx,[rax+rax*1]
  40fc5e:	48 8b 45 88          	mov    rax,QWORD PTR [rbp-0x78]
  40fc62:	48 01 d0             	add    rax,rdx
  40fc65:	0f b7 00             	movzx  eax,WORD PTR [rax]
  40fc68:	0f b7 d0             	movzx  edx,ax
  40fc6b:	48 8b 8d 08 ff ff ff 	mov    rcx,QWORD PTR [rbp-0xf8]
  40fc72:	48 63 f2             	movsxd rsi,edx
  40fc75:	8b 45 c0             	mov    eax,DWORD PTR [rbp-0x40]
  40fc78:	48 98                	cdqe   
  40fc7a:	48 01 c0             	add    rax,rax
  40fc7d:	48 89 c7             	mov    rdi,rax
  40fc80:	48 c1 e7 07          	shl    rdi,0x7
  40fc84:	48 01 f8             	add    rax,rdi
  40fc87:	48 01 f0             	add    rax,rsi
  40fc8a:	48 05 60 2c 00 00    	add    rax,0x2c60
  40fc90:	8b 44 81 08          	mov    eax,DWORD PTR [rcx+rax*4+0x8]
  40fc94:	8d 70 01             	lea    esi,[rax+0x1]
  40fc97:	48 8b 8d 08 ff ff ff 	mov    rcx,QWORD PTR [rbp-0xf8]
  40fc9e:	48 63 d2             	movsxd rdx,edx
  40fca1:	8b 45 c0             	mov    eax,DWORD PTR [rbp-0x40]
  40fca4:	48 98                	cdqe   
  40fca6:	48 01 c0             	add    rax,rax
  40fca9:	48 89 c7             	mov    rdi,rax
  40fcac:	48 c1 e7 07          	shl    rdi,0x7
  40fcb0:	48 01 f8             	add    rax,rdi
  40fcb3:	48 01 d0             	add    rax,rdx
  40fcb6:	48 05 60 2c 00 00    	add    rax,0x2c60
  40fcbc:	89 74 81 08          	mov    DWORD PTR [rcx+rax*4+0x8],esi
  40fcc0:	8b 45 cc             	mov    eax,DWORD PTR [rbp-0x34]
  40fcc3:	48 98                	cdqe   
  40fcc5:	48 83 c0 23          	add    rax,0x23
  40fcc9:	48 8d 14 00          	lea    rdx,[rax+rax*1]
  40fccd:	48 8b 45 88          	mov    rax,QWORD PTR [rbp-0x78]
  40fcd1:	48 01 d0             	add    rax,rdx
  40fcd4:	0f b7 00             	movzx  eax,WORD PTR [rax]
  40fcd7:	0f b7 d0             	movzx  edx,ax
  40fcda:	48 8b 8d 08 ff ff ff 	mov    rcx,QWORD PTR [rbp-0xf8]
  40fce1:	48 63 f2             	movsxd rsi,edx
  40fce4:	8b 45 c0             	mov    eax,DWORD PTR [rbp-0x40]
  40fce7:	48 98                	cdqe   
  40fce9:	48 01 c0             	add    rax,rax
  40fcec:	48 89 c7             	mov    rdi,rax
  40fcef:	48 c1 e7 07          	shl    rdi,0x7
  40fcf3:	48 01 f8             	add    rax,rdi
  40fcf6:	48 01 f0             	add    rax,rsi
  40fcf9:	48 05 60 2c 00 00    	add    rax,0x2c60
  40fcff:	8b 44 81 08          	mov    eax,DWORD PTR [rcx+rax*4+0x8]
  40fd03:	8d 70 01             	lea    esi,[rax+0x1]
  40fd06:	48 8b 8d 08 ff ff ff 	mov    rcx,QWORD PTR [rbp-0xf8]
  40fd0d:	48 63 d2             	movsxd rdx,edx
  40fd10:	8b 45 c0             	mov    eax,DWORD PTR [rbp-0x40]
  40fd13:	48 98                	cdqe   
  40fd15:	48 01 c0             	add    rax,rax
  40fd18:	48 89 c7             	mov    rdi,rax
  40fd1b:	48 c1 e7 07          	shl    rdi,0x7
  40fd1f:	48 01 f8             	add    rax,rdi
  40fd22:	48 01 d0             	add    rax,rdx
  40fd25:	48 05 60 2c 00 00    	add    rax,0x2c60
  40fd2b:	89 74 81 08          	mov    DWORD PTR [rcx+rax*4+0x8],esi
  40fd2f:	8b 45 cc             	mov    eax,DWORD PTR [rbp-0x34]
  40fd32:	48 98                	cdqe   
  40fd34:	48 83 c0 24          	add    rax,0x24
  40fd38:	48 8d 14 00          	lea    rdx,[rax+rax*1]
  40fd3c:	48 8b 45 88          	mov    rax,QWORD PTR [rbp-0x78]
  40fd40:	48 01 d0             	add    rax,rdx
  40fd43:	0f b7 00             	movzx  eax,WORD PTR [rax]
  40fd46:	0f b7 d0             	movzx  edx,ax
  40fd49:	48 8b 8d 08 ff ff ff 	mov    rcx,QWORD PTR [rbp-0xf8]
  40fd50:	48 63 f2             	movsxd rsi,edx
  40fd53:	8b 45 c0             	mov    eax,DWORD PTR [rbp-0x40]
  40fd56:	48 98                	cdqe   
  40fd58:	48 01 c0             	add    rax,rax
  40fd5b:	48 89 c7             	mov    rdi,rax
  40fd5e:	48 c1 e7 07          	shl    rdi,0x7
  40fd62:	48 01 f8             	add    rax,rdi
  40fd65:	48 01 f0             	add    rax,rsi
  40fd68:	48 05 60 2c 00 00    	add    rax,0x2c60
  40fd6e:	8b 44 81 08          	mov    eax,DWORD PTR [rcx+rax*4+0x8]
  40fd72:	8d 70 01             	lea    esi,[rax+0x1]
  40fd75:	48 8b 8d 08 ff ff ff 	mov    rcx,QWORD PTR [rbp-0xf8]
  40fd7c:	48 63 d2             	movsxd rdx,edx
  40fd7f:	8b 45 c0             	mov    eax,DWORD PTR [rbp-0x40]
  40fd82:	48 98                	cdqe   
  40fd84:	48 01 c0             	add    rax,rax
  40fd87:	48 89 c7             	mov    rdi,rax
  40fd8a:	48 c1 e7 07          	shl    rdi,0x7
  40fd8e:	48 01 f8             	add    rax,rdi
  40fd91:	48 01 d0             	add    rax,rdx
  40fd94:	48 05 60 2c 00 00    	add    rax,0x2c60
  40fd9a:	89 74 81 08          	mov    DWORD PTR [rcx+rax*4+0x8],esi
  40fd9e:	8b 45 cc             	mov    eax,DWORD PTR [rbp-0x34]
  40fda1:	48 98                	cdqe   
  40fda3:	48 83 c0 25          	add    rax,0x25
  40fda7:	48 8d 14 00          	lea    rdx,[rax+rax*1]
  40fdab:	48 8b 45 88          	mov    rax,QWORD PTR [rbp-0x78]
  40fdaf:	48 01 d0             	add    rax,rdx
  40fdb2:	0f b7 00             	movzx  eax,WORD PTR [rax]
  40fdb5:	0f b7 d0             	movzx  edx,ax
  40fdb8:	48 8b 8d 08 ff ff ff 	mov    rcx,QWORD PTR [rbp-0xf8]
  40fdbf:	48 63 f2             	movsxd rsi,edx
  40fdc2:	8b 45 c0             	mov    eax,DWORD PTR [rbp-0x40]
  40fdc5:	48 98                	cdqe   
  40fdc7:	48 01 c0             	add    rax,rax
  40fdca:	48 89 c7             	mov    rdi,rax
  40fdcd:	48 c1 e7 07          	shl    rdi,0x7
  40fdd1:	48 01 f8             	add    rax,rdi
  40fdd4:	48 01 f0             	add    rax,rsi
  40fdd7:	48 05 60 2c 00 00    	add    rax,0x2c60
  40fddd:	8b 44 81 08          	mov    eax,DWORD PTR [rcx+rax*4+0x8]
  40fde1:	8d 70 01             	lea    esi,[rax+0x1]
  40fde4:	48 8b 8d 08 ff ff ff 	mov    rcx,QWORD PTR [rbp-0xf8]
  40fdeb:	48 63 d2             	movsxd rdx,edx
  40fdee:	8b 45 c0             	mov    eax,DWORD PTR [rbp-0x40]
  40fdf1:	48 98                	cdqe   
  40fdf3:	48 01 c0             	add    rax,rax
  40fdf6:	48 89 c7             	mov    rdi,rax
  40fdf9:	48 c1 e7 07          	shl    rdi,0x7
  40fdfd:	48 01 f8             	add    rax,rdi
  40fe00:	48 01 d0             	add    rax,rdx
  40fe03:	48 05 60 2c 00 00    	add    rax,0x2c60
  40fe09:	89 74 81 08          	mov    DWORD PTR [rcx+rax*4+0x8],esi
  40fe0d:	8b 45 cc             	mov    eax,DWORD PTR [rbp-0x34]
  40fe10:	48 98                	cdqe   
  40fe12:	48 83 c0 26          	add    rax,0x26
  40fe16:	48 8d 14 00          	lea    rdx,[rax+rax*1]
  40fe1a:	48 8b 45 88          	mov    rax,QWORD PTR [rbp-0x78]
  40fe1e:	48 01 d0             	add    rax,rdx
  40fe21:	0f b7 00             	movzx  eax,WORD PTR [rax]
  40fe24:	0f b7 d0             	movzx  edx,ax
  40fe27:	48 8b 8d 08 ff ff ff 	mov    rcx,QWORD PTR [rbp-0xf8]
  40fe2e:	48 63 f2             	movsxd rsi,edx
  40fe31:	8b 45 c0             	mov    eax,DWORD PTR [rbp-0x40]
  40fe34:	48 98                	cdqe   
  40fe36:	48 01 c0             	add    rax,rax
  40fe39:	48 89 c7             	mov    rdi,rax
  40fe3c:	48 c1 e7 07          	shl    rdi,0x7
  40fe40:	48 01 f8             	add    rax,rdi
  40fe43:	48 01 f0             	add    rax,rsi
  40fe46:	48 05 60 2c 00 00    	add    rax,0x2c60
  40fe4c:	8b 44 81 08          	mov    eax,DWORD PTR [rcx+rax*4+0x8]
  40fe50:	8d 70 01             	lea    esi,[rax+0x1]
  40fe53:	48 8b 8d 08 ff ff ff 	mov    rcx,QWORD PTR [rbp-0xf8]
  40fe5a:	48 63 d2             	movsxd rdx,edx
  40fe5d:	8b 45 c0             	mov    eax,DWORD PTR [rbp-0x40]
  40fe60:	48 98                	cdqe   
  40fe62:	48 01 c0             	add    rax,rax
  40fe65:	48 89 c7             	mov    rdi,rax
  40fe68:	48 c1 e7 07          	shl    rdi,0x7
  40fe6c:	48 01 f8             	add    rax,rdi
  40fe6f:	48 01 d0             	add    rax,rdx
  40fe72:	48 05 60 2c 00 00    	add    rax,0x2c60
  40fe78:	89 74 81 08          	mov    DWORD PTR [rcx+rax*4+0x8],esi
  40fe7c:	8b 45 cc             	mov    eax,DWORD PTR [rbp-0x34]
  40fe7f:	48 98                	cdqe   
  40fe81:	48 83 c0 27          	add    rax,0x27
  40fe85:	48 8d 14 00          	lea    rdx,[rax+rax*1]
  40fe89:	48 8b 45 88          	mov    rax,QWORD PTR [rbp-0x78]
  40fe8d:	48 01 d0             	add    rax,rdx
  40fe90:	0f b7 00             	movzx  eax,WORD PTR [rax]
  40fe93:	0f b7 d0             	movzx  edx,ax
  40fe96:	48 8b 8d 08 ff ff ff 	mov    rcx,QWORD PTR [rbp-0xf8]
  40fe9d:	48 63 f2             	movsxd rsi,edx
  40fea0:	8b 45 c0             	mov    eax,DWORD PTR [rbp-0x40]
  40fea3:	48 98                	cdqe   
  40fea5:	48 01 c0             	add    rax,rax
  40fea8:	48 89 c7             	mov    rdi,rax
  40feab:	48 c1 e7 07          	shl    rdi,0x7
  40feaf:	48 01 f8             	add    rax,rdi
  40feb2:	48 01 f0             	add    rax,rsi
  40feb5:	48 05 60 2c 00 00    	add    rax,0x2c60
  40febb:	8b 44 81 08          	mov    eax,DWORD PTR [rcx+rax*4+0x8]
  40febf:	8d 70 01             	lea    esi,[rax+0x1]
  40fec2:	48 8b 8d 08 ff ff ff 	mov    rcx,QWORD PTR [rbp-0xf8]
  40fec9:	48 63 d2             	movsxd rdx,edx
  40fecc:	8b 45 c0             	mov    eax,DWORD PTR [rbp-0x40]
  40fecf:	48 98                	cdqe   
  40fed1:	48 01 c0             	add    rax,rax
  40fed4:	48 89 c7             	mov    rdi,rax
  40fed7:	48 c1 e7 07          	shl    rdi,0x7
  40fedb:	48 01 f8             	add    rax,rdi
  40fede:	48 01 d0             	add    rax,rdx
  40fee1:	48 05 60 2c 00 00    	add    rax,0x2c60
  40fee7:	89 74 81 08          	mov    DWORD PTR [rcx+rax*4+0x8],esi
  40feeb:	8b 45 cc             	mov    eax,DWORD PTR [rbp-0x34]
  40feee:	48 98                	cdqe   
  40fef0:	48 83 c0 28          	add    rax,0x28
  40fef4:	48 8d 14 00          	lea    rdx,[rax+rax*1]
  40fef8:	48 8b 45 88          	mov    rax,QWORD PTR [rbp-0x78]
  40fefc:	48 01 d0             	add    rax,rdx
  40feff:	0f b7 00             	movzx  eax,WORD PTR [rax]
  40ff02:	0f b7 d0             	movzx  edx,ax
  40ff05:	48 8b 8d 08 ff ff ff 	mov    rcx,QWORD PTR [rbp-0xf8]
  40ff0c:	48 63 f2             	movsxd rsi,edx
  40ff0f:	8b 45 c0             	mov    eax,DWORD PTR [rbp-0x40]
  40ff12:	48 98                	cdqe   
  40ff14:	48 01 c0             	add    rax,rax
  40ff17:	48 89 c7             	mov    rdi,rax
  40ff1a:	48 c1 e7 07          	shl    rdi,0x7
  40ff1e:	48 01 f8             	add    rax,rdi
  40ff21:	48 01 f0             	add    rax,rsi
  40ff24:	48 05 60 2c 00 00    	add    rax,0x2c60
  40ff2a:	8b 44 81 08          	mov    eax,DWORD PTR [rcx+rax*4+0x8]
  40ff2e:	8d 70 01             	lea    esi,[rax+0x1]
  40ff31:	48 8b 8d 08 ff ff ff 	mov    rcx,QWORD PTR [rbp-0xf8]
  40ff38:	48 63 d2             	movsxd rdx,edx
  40ff3b:	8b 45 c0             	mov    eax,DWORD PTR [rbp-0x40]
  40ff3e:	48 98                	cdqe   
  40ff40:	48 01 c0             	add    rax,rax
  40ff43:	48 89 c7             	mov    rdi,rax
  40ff46:	48 c1 e7 07          	shl    rdi,0x7
  40ff4a:	48 01 f8             	add    rax,rdi
  40ff4d:	48 01 d0             	add    rax,rdx
  40ff50:	48 05 60 2c 00 00    	add    rax,0x2c60
  40ff56:	89 74 81 08          	mov    DWORD PTR [rcx+rax*4+0x8],esi
  40ff5a:	8b 45 cc             	mov    eax,DWORD PTR [rbp-0x34]
  40ff5d:	48 98                	cdqe   
  40ff5f:	48 83 c0 29          	add    rax,0x29
  40ff63:	48 8d 14 00          	lea    rdx,[rax+rax*1]
  40ff67:	48 8b 45 88          	mov    rax,QWORD PTR [rbp-0x78]
  40ff6b:	48 01 d0             	add    rax,rdx
  40ff6e:	0f b7 00             	movzx  eax,WORD PTR [rax]
  40ff71:	0f b7 d0             	movzx  edx,ax
  40ff74:	48 8b 8d 08 ff ff ff 	mov    rcx,QWORD PTR [rbp-0xf8]
  40ff7b:	48 63 f2             	movsxd rsi,edx
  40ff7e:	8b 45 c0             	mov    eax,DWORD PTR [rbp-0x40]
  40ff81:	48 98                	cdqe   
  40ff83:	48 01 c0             	add    rax,rax
  40ff86:	48 89 c7             	mov    rdi,rax
  40ff89:	48 c1 e7 07          	shl    rdi,0x7
  40ff8d:	48 01 f8             	add    rax,rdi
  40ff90:	48 01 f0             	add    rax,rsi
  40ff93:	48 05 60 2c 00 00    	add    rax,0x2c60
  40ff99:	8b 44 81 08          	mov    eax,DWORD PTR [rcx+rax*4+0x8]
  40ff9d:	8d 70 01             	lea    esi,[rax+0x1]
  40ffa0:	48 8b 8d 08 ff ff ff 	mov    rcx,QWORD PTR [rbp-0xf8]
  40ffa7:	48 63 d2             	movsxd rdx,edx
  40ffaa:	8b 45 c0             	mov    eax,DWORD PTR [rbp-0x40]
  40ffad:	48 98                	cdqe   
  40ffaf:	48 01 c0             	add    rax,rax
  40ffb2:	48 89 c7             	mov    rdi,rax
  40ffb5:	48 c1 e7 07          	shl    rdi,0x7
  40ffb9:	48 01 f8             	add    rax,rdi
  40ffbc:	48 01 d0             	add    rax,rdx
  40ffbf:	48 05 60 2c 00 00    	add    rax,0x2c60
  40ffc5:	89 74 81 08          	mov    DWORD PTR [rcx+rax*4+0x8],esi
  40ffc9:	8b 45 cc             	mov    eax,DWORD PTR [rbp-0x34]
  40ffcc:	48 98                	cdqe   
  40ffce:	48 83 c0 2a          	add    rax,0x2a
  40ffd2:	48 8d 14 00          	lea    rdx,[rax+rax*1]
  40ffd6:	48 8b 45 88          	mov    rax,QWORD PTR [rbp-0x78]
  40ffda:	48 01 d0             	add    rax,rdx
  40ffdd:	0f b7 00             	movzx  eax,WORD PTR [rax]
  40ffe0:	0f b7 d0             	movzx  edx,ax
  40ffe3:	48 8b 8d 08 ff ff ff 	mov    rcx,QWORD PTR [rbp-0xf8]
  40ffea:	48 63 f2             	movsxd rsi,edx
  40ffed:	8b 45 c0             	mov    eax,DWORD PTR [rbp-0x40]
  40fff0:	48 98                	cdqe   
  40fff2:	48 01 c0             	add    rax,rax
  40fff5:	48 89 c7             	mov    rdi,rax
  40fff8:	48 c1 e7 07          	shl    rdi,0x7
  40fffc:	48 01 f8             	add    rax,rdi
  40ffff:	48 01 f0             	add    rax,rsi
  410002:	48 05 60 2c 00 00    	add    rax,0x2c60
  410008:	8b 44 81 08          	mov    eax,DWORD PTR [rcx+rax*4+0x8]
  41000c:	8d 70 01             	lea    esi,[rax+0x1]
  41000f:	48 8b 8d 08 ff ff ff 	mov    rcx,QWORD PTR [rbp-0xf8]
  410016:	48 63 d2             	movsxd rdx,edx
  410019:	8b 45 c0             	mov    eax,DWORD PTR [rbp-0x40]
  41001c:	48 98                	cdqe   
  41001e:	48 01 c0             	add    rax,rax
  410021:	48 89 c7             	mov    rdi,rax
  410024:	48 c1 e7 07          	shl    rdi,0x7
  410028:	48 01 f8             	add    rax,rdi
  41002b:	48 01 d0             	add    rax,rdx
  41002e:	48 05 60 2c 00 00    	add    rax,0x2c60
  410034:	89 74 81 08          	mov    DWORD PTR [rcx+rax*4+0x8],esi
  410038:	8b 45 cc             	mov    eax,DWORD PTR [rbp-0x34]
  41003b:	48 98                	cdqe   
  41003d:	48 83 c0 2b          	add    rax,0x2b
  410041:	48 8d 14 00          	lea    rdx,[rax+rax*1]
  410045:	48 8b 45 88          	mov    rax,QWORD PTR [rbp-0x78]
  410049:	48 01 d0             	add    rax,rdx
  41004c:	0f b7 00             	movzx  eax,WORD PTR [rax]
  41004f:	0f b7 d0             	movzx  edx,ax
  410052:	48 8b 8d 08 ff ff ff 	mov    rcx,QWORD PTR [rbp-0xf8]
  410059:	48 63 f2             	movsxd rsi,edx
  41005c:	8b 45 c0             	mov    eax,DWORD PTR [rbp-0x40]
  41005f:	48 98                	cdqe   
  410061:	48 01 c0             	add    rax,rax
  410064:	48 89 c7             	mov    rdi,rax
  410067:	48 c1 e7 07          	shl    rdi,0x7
  41006b:	48 01 f8             	add    rax,rdi
  41006e:	48 01 f0             	add    rax,rsi
  410071:	48 05 60 2c 00 00    	add    rax,0x2c60
  410077:	8b 44 81 08          	mov    eax,DWORD PTR [rcx+rax*4+0x8]
  41007b:	8d 70 01             	lea    esi,[rax+0x1]
  41007e:	48 8b 8d 08 ff ff ff 	mov    rcx,QWORD PTR [rbp-0xf8]
  410085:	48 63 d2             	movsxd rdx,edx
  410088:	8b 45 c0             	mov    eax,DWORD PTR [rbp-0x40]
  41008b:	48 98                	cdqe   
  41008d:	48 01 c0             	add    rax,rax
  410090:	48 89 c7             	mov    rdi,rax
  410093:	48 c1 e7 07          	shl    rdi,0x7
  410097:	48 01 f8             	add    rax,rdi
  41009a:	48 01 d0             	add    rax,rdx
  41009d:	48 05 60 2c 00 00    	add    rax,0x2c60
  4100a3:	89 74 81 08          	mov    DWORD PTR [rcx+rax*4+0x8],esi
  4100a7:	8b 45 cc             	mov    eax,DWORD PTR [rbp-0x34]
  4100aa:	48 98                	cdqe   
  4100ac:	48 83 c0 2c          	add    rax,0x2c
  4100b0:	48 8d 14 00          	lea    rdx,[rax+rax*1]
  4100b4:	48 8b 45 88          	mov    rax,QWORD PTR [rbp-0x78]
  4100b8:	48 01 d0             	add    rax,rdx
  4100bb:	0f b7 00             	movzx  eax,WORD PTR [rax]
  4100be:	0f b7 d0             	movzx  edx,ax
  4100c1:	48 8b 8d 08 ff ff ff 	mov    rcx,QWORD PTR [rbp-0xf8]
  4100c8:	48 63 f2             	movsxd rsi,edx
  4100cb:	8b 45 c0             	mov    eax,DWORD PTR [rbp-0x40]
  4100ce:	48 98                	cdqe   
  4100d0:	48 01 c0             	add    rax,rax
  4100d3:	48 89 c7             	mov    rdi,rax
  4100d6:	48 c1 e7 07          	shl    rdi,0x7
  4100da:	48 01 f8             	add    rax,rdi
  4100dd:	48 01 f0             	add    rax,rsi
  4100e0:	48 05 60 2c 00 00    	add    rax,0x2c60
  4100e6:	8b 44 81 08          	mov    eax,DWORD PTR [rcx+rax*4+0x8]
  4100ea:	8d 70 01             	lea    esi,[rax+0x1]
  4100ed:	48 8b 8d 08 ff ff ff 	mov    rcx,QWORD PTR [rbp-0xf8]
  4100f4:	48 63 d2             	movsxd rdx,edx
  4100f7:	8b 45 c0             	mov    eax,DWORD PTR [rbp-0x40]
  4100fa:	48 98                	cdqe   
  4100fc:	48 01 c0             	add    rax,rax
  4100ff:	48 89 c7             	mov    rdi,rax
  410102:	48 c1 e7 07          	shl    rdi,0x7
  410106:	48 01 f8             	add    rax,rdi
  410109:	48 01 d0             	add    rax,rdx
  41010c:	48 05 60 2c 00 00    	add    rax,0x2c60
  410112:	89 74 81 08          	mov    DWORD PTR [rcx+rax*4+0x8],esi
  410116:	8b 45 cc             	mov    eax,DWORD PTR [rbp-0x34]
  410119:	48 98                	cdqe   
  41011b:	48 83 c0 2d          	add    rax,0x2d
  41011f:	48 8d 14 00          	lea    rdx,[rax+rax*1]
  410123:	48 8b 45 88          	mov    rax,QWORD PTR [rbp-0x78]
  410127:	48 01 d0             	add    rax,rdx
  41012a:	0f b7 00             	movzx  eax,WORD PTR [rax]
  41012d:	0f b7 d0             	movzx  edx,ax
  410130:	48 8b 8d 08 ff ff ff 	mov    rcx,QWORD PTR [rbp-0xf8]
  410137:	48 63 f2             	movsxd rsi,edx
  41013a:	8b 45 c0             	mov    eax,DWORD PTR [rbp-0x40]
  41013d:	48 98                	cdqe   
  41013f:	48 01 c0             	add    rax,rax
  410142:	48 89 c7             	mov    rdi,rax
  410145:	48 c1 e7 07          	shl    rdi,0x7
  410149:	48 01 f8             	add    rax,rdi
  41014c:	48 01 f0             	add    rax,rsi
  41014f:	48 05 60 2c 00 00    	add    rax,0x2c60
  410155:	8b 44 81 08          	mov    eax,DWORD PTR [rcx+rax*4+0x8]
  410159:	8d 70 01             	lea    esi,[rax+0x1]
  41015c:	48 8b 8d 08 ff ff ff 	mov    rcx,QWORD PTR [rbp-0xf8]
  410163:	48 63 d2             	movsxd rdx,edx
  410166:	8b 45 c0             	mov    eax,DWORD PTR [rbp-0x40]
  410169:	48 98                	cdqe   
  41016b:	48 01 c0             	add    rax,rax
  41016e:	48 89 c7             	mov    rdi,rax
  410171:	48 c1 e7 07          	shl    rdi,0x7
  410175:	48 01 f8             	add    rax,rdi
  410178:	48 01 d0             	add    rax,rdx
  41017b:	48 05 60 2c 00 00    	add    rax,0x2c60
  410181:	89 74 81 08          	mov    DWORD PTR [rcx+rax*4+0x8],esi
  410185:	8b 45 cc             	mov    eax,DWORD PTR [rbp-0x34]
  410188:	48 98                	cdqe   
  41018a:	48 83 c0 2e          	add    rax,0x2e
  41018e:	48 8d 14 00          	lea    rdx,[rax+rax*1]
  410192:	48 8b 45 88          	mov    rax,QWORD PTR [rbp-0x78]
  410196:	48 01 d0             	add    rax,rdx
  410199:	0f b7 00             	movzx  eax,WORD PTR [rax]
  41019c:	0f b7 d0             	movzx  edx,ax
  41019f:	48 8b 8d 08 ff ff ff 	mov    rcx,QWORD PTR [rbp-0xf8]
  4101a6:	48 63 f2             	movsxd rsi,edx
  4101a9:	8b 45 c0             	mov    eax,DWORD PTR [rbp-0x40]
  4101ac:	48 98                	cdqe   
  4101ae:	48 01 c0             	add    rax,rax
  4101b1:	48 89 c7             	mov    rdi,rax
  4101b4:	48 c1 e7 07          	shl    rdi,0x7
  4101b8:	48 01 f8             	add    rax,rdi
  4101bb:	48 01 f0             	add    rax,rsi
  4101be:	48 05 60 2c 00 00    	add    rax,0x2c60
  4101c4:	8b 44 81 08          	mov    eax,DWORD PTR [rcx+rax*4+0x8]
  4101c8:	8d 70 01             	lea    esi,[rax+0x1]
  4101cb:	48 8b 8d 08 ff ff ff 	mov    rcx,QWORD PTR [rbp-0xf8]
  4101d2:	48 63 d2             	movsxd rdx,edx
  4101d5:	8b 45 c0             	mov    eax,DWORD PTR [rbp-0x40]
  4101d8:	48 98                	cdqe   
  4101da:	48 01 c0             	add    rax,rax
  4101dd:	48 89 c7             	mov    rdi,rax
  4101e0:	48 c1 e7 07          	shl    rdi,0x7
  4101e4:	48 01 f8             	add    rax,rdi
  4101e7:	48 01 d0             	add    rax,rdx
  4101ea:	48 05 60 2c 00 00    	add    rax,0x2c60
  4101f0:	89 74 81 08          	mov    DWORD PTR [rcx+rax*4+0x8],esi
  4101f4:	8b 45 cc             	mov    eax,DWORD PTR [rbp-0x34]
  4101f7:	48 98                	cdqe   
  4101f9:	48 83 c0 2f          	add    rax,0x2f
  4101fd:	48 8d 14 00          	lea    rdx,[rax+rax*1]
  410201:	48 8b 45 88          	mov    rax,QWORD PTR [rbp-0x78]
  410205:	48 01 d0             	add    rax,rdx
  410208:	0f b7 00             	movzx  eax,WORD PTR [rax]
  41020b:	0f b7 d0             	movzx  edx,ax
  41020e:	48 8b 8d 08 ff ff ff 	mov    rcx,QWORD PTR [rbp-0xf8]
  410215:	48 63 f2             	movsxd rsi,edx
  410218:	8b 45 c0             	mov    eax,DWORD PTR [rbp-0x40]
  41021b:	48 98                	cdqe   
  41021d:	48 01 c0             	add    rax,rax
  410220:	48 89 c7             	mov    rdi,rax
  410223:	48 c1 e7 07          	shl    rdi,0x7
  410227:	48 01 f8             	add    rax,rdi
  41022a:	48 01 f0             	add    rax,rsi
  41022d:	48 05 60 2c 00 00    	add    rax,0x2c60
  410233:	8b 44 81 08          	mov    eax,DWORD PTR [rcx+rax*4+0x8]
  410237:	8d 70 01             	lea    esi,[rax+0x1]
  41023a:	48 8b 8d 08 ff ff ff 	mov    rcx,QWORD PTR [rbp-0xf8]
  410241:	48 63 d2             	movsxd rdx,edx
  410244:	8b 45 c0             	mov    eax,DWORD PTR [rbp-0x40]
  410247:	48 98                	cdqe   
  410249:	48 01 c0             	add    rax,rax
  41024c:	48 89 c7             	mov    rdi,rax
  41024f:	48 c1 e7 07          	shl    rdi,0x7
  410253:	48 01 f8             	add    rax,rdi
  410256:	48 01 d0             	add    rax,rdx
  410259:	48 05 60 2c 00 00    	add    rax,0x2c60
  41025f:	89 74 81 08          	mov    DWORD PTR [rcx+rax*4+0x8],esi
  410263:	8b 45 cc             	mov    eax,DWORD PTR [rbp-0x34]
  410266:	48 98                	cdqe   
  410268:	48 83 c0 30          	add    rax,0x30
  41026c:	48 8d 14 00          	lea    rdx,[rax+rax*1]
  410270:	48 8b 45 88          	mov    rax,QWORD PTR [rbp-0x78]
  410274:	48 01 d0             	add    rax,rdx
  410277:	0f b7 00             	movzx  eax,WORD PTR [rax]
  41027a:	0f b7 d0             	movzx  edx,ax
  41027d:	48 8b 8d 08 ff ff ff 	mov    rcx,QWORD PTR [rbp-0xf8]
  410284:	48 63 f2             	movsxd rsi,edx
  410287:	8b 45 c0             	mov    eax,DWORD PTR [rbp-0x40]
  41028a:	48 98                	cdqe   
  41028c:	48 01 c0             	add    rax,rax
  41028f:	48 89 c7             	mov    rdi,rax
  410292:	48 c1 e7 07          	shl    rdi,0x7
  410296:	48 01 f8             	add    rax,rdi
  410299:	48 01 f0             	add    rax,rsi
  41029c:	48 05 60 2c 00 00    	add    rax,0x2c60
  4102a2:	8b 44 81 08          	mov    eax,DWORD PTR [rcx+rax*4+0x8]
  4102a6:	8d 70 01             	lea    esi,[rax+0x1]
  4102a9:	48 8b 8d 08 ff ff ff 	mov    rcx,QWORD PTR [rbp-0xf8]
  4102b0:	48 63 d2             	movsxd rdx,edx
  4102b3:	8b 45 c0             	mov    eax,DWORD PTR [rbp-0x40]
  4102b6:	48 98                	cdqe   
  4102b8:	48 01 c0             	add    rax,rax
  4102bb:	48 89 c7             	mov    rdi,rax
  4102be:	48 c1 e7 07          	shl    rdi,0x7
  4102c2:	48 01 f8             	add    rax,rdi
  4102c5:	48 01 d0             	add    rax,rdx
  4102c8:	48 05 60 2c 00 00    	add    rax,0x2c60
  4102ce:	89 74 81 08          	mov    DWORD PTR [rcx+rax*4+0x8],esi
  4102d2:	8b 45 cc             	mov    eax,DWORD PTR [rbp-0x34]
  4102d5:	48 98                	cdqe   
  4102d7:	48 83 c0 31          	add    rax,0x31
  4102db:	48 8d 14 00          	lea    rdx,[rax+rax*1]
  4102df:	48 8b 45 88          	mov    rax,QWORD PTR [rbp-0x78]
  4102e3:	48 01 d0             	add    rax,rdx
  4102e6:	0f b7 00             	movzx  eax,WORD PTR [rax]
  4102e9:	0f b7 d0             	movzx  edx,ax
  4102ec:	48 8b 8d 08 ff ff ff 	mov    rcx,QWORD PTR [rbp-0xf8]
  4102f3:	48 63 f2             	movsxd rsi,edx
  4102f6:	8b 45 c0             	mov    eax,DWORD PTR [rbp-0x40]
  4102f9:	48 98                	cdqe   
  4102fb:	48 01 c0             	add    rax,rax
  4102fe:	48 89 c7             	mov    rdi,rax
  410301:	48 c1 e7 07          	shl    rdi,0x7
  410305:	48 01 f8             	add    rax,rdi
  410308:	48 01 f0             	add    rax,rsi
  41030b:	48 05 60 2c 00 00    	add    rax,0x2c60
  410311:	8b 44 81 08          	mov    eax,DWORD PTR [rcx+rax*4+0x8]
  410315:	8d 70 01             	lea    esi,[rax+0x1]
  410318:	48 8b 8d 08 ff ff ff 	mov    rcx,QWORD PTR [rbp-0xf8]
  41031f:	48 63 d2             	movsxd rdx,edx
  410322:	8b 45 c0             	mov    eax,DWORD PTR [rbp-0x40]
  410325:	48 98                	cdqe   
  410327:	48 01 c0             	add    rax,rax
  41032a:	48 89 c7             	mov    rdi,rax
  41032d:	48 c1 e7 07          	shl    rdi,0x7
  410331:	48 01 f8             	add    rax,rdi
  410334:	48 01 d0             	add    rax,rdx
  410337:	48 05 60 2c 00 00    	add    rax,0x2c60
  41033d:	89 74 81 08          	mov    DWORD PTR [rcx+rax*4+0x8],esi
  410341:	eb 7f                	jmp    4103c2 <sendMTFValues+0x34d4>
  410343:	8b 45 cc             	mov    eax,DWORD PTR [rbp-0x34]
  410346:	89 45 d4             	mov    DWORD PTR [rbp-0x2c],eax
  410349:	eb 6f                	jmp    4103ba <sendMTFValues+0x34cc>
  41034b:	8b 45 d4             	mov    eax,DWORD PTR [rbp-0x2c]
  41034e:	48 98                	cdqe   
  410350:	48 8d 14 00          	lea    rdx,[rax+rax*1]
  410354:	48 8b 45 88          	mov    rax,QWORD PTR [rbp-0x78]
  410358:	48 01 d0             	add    rax,rdx
  41035b:	0f b7 00             	movzx  eax,WORD PTR [rax]
  41035e:	0f b7 d0             	movzx  edx,ax
  410361:	48 8b 8d 08 ff ff ff 	mov    rcx,QWORD PTR [rbp-0xf8]
  410368:	48 63 f2             	movsxd rsi,edx
  41036b:	8b 45 c0             	mov    eax,DWORD PTR [rbp-0x40]
  41036e:	48 98                	cdqe   
  410370:	48 01 c0             	add    rax,rax
  410373:	48 89 c7             	mov    rdi,rax
  410376:	48 c1 e7 07          	shl    rdi,0x7
  41037a:	48 01 f8             	add    rax,rdi
  41037d:	48 01 f0             	add    rax,rsi
  410380:	48 05 60 2c 00 00    	add    rax,0x2c60
  410386:	8b 44 81 08          	mov    eax,DWORD PTR [rcx+rax*4+0x8]
  41038a:	8d 70 01             	lea    esi,[rax+0x1]
  41038d:	48 8b 8d 08 ff ff ff 	mov    rcx,QWORD PTR [rbp-0xf8]
  410394:	48 63 d2             	movsxd rdx,edx
  410397:	8b 45 c0             	mov    eax,DWORD PTR [rbp-0x40]
  41039a:	48 98                	cdqe   
  41039c:	48 01 c0             	add    rax,rax
  41039f:	48 89 c7             	mov    rdi,rax
  4103a2:	48 c1 e7 07          	shl    rdi,0x7
  4103a6:	48 01 f8             	add    rax,rdi
  4103a9:	48 01 d0             	add    rax,rdx
  4103ac:	48 05 60 2c 00 00    	add    rax,0x2c60
  4103b2:	89 74 81 08          	mov    DWORD PTR [rcx+rax*4+0x8],esi
  4103b6:	83 45 d4 01          	add    DWORD PTR [rbp-0x2c],0x1
  4103ba:	8b 45 d4             	mov    eax,DWORD PTR [rbp-0x2c]
  4103bd:	3b 45 c8             	cmp    eax,DWORD PTR [rbp-0x38]
  4103c0:	7e 89                	jle    41034b <sendMTFValues+0x345d>
  4103c2:	8b 45 c8             	mov    eax,DWORD PTR [rbp-0x38]
  4103c5:	83 c0 01             	add    eax,0x1
  4103c8:	89 45 cc             	mov    DWORD PTR [rbp-0x34],eax
  4103cb:	e9 35 d0 ff ff       	jmp    40d405 <sendMTFValues+0x517>
  4103d0:	90                   	nop
  4103d1:	48 8b 85 08 ff ff ff 	mov    rax,QWORD PTR [rbp-0xf8]
  4103d8:	8b 80 90 02 00 00    	mov    eax,DWORD PTR [rax+0x290]
  4103de:	83 f8 02             	cmp    eax,0x2
  4103e1:	0f 8e 81 00 00 00    	jle    410468 <sendMTFValues+0x357a>
  4103e7:	8b 45 c4             	mov    eax,DWORD PTR [rbp-0x3c]
  4103ea:	8d 50 07             	lea    edx,[rax+0x7]
  4103ed:	85 c0                	test   eax,eax
  4103ef:	0f 48 c2             	cmovs  eax,edx
  4103f2:	c1 f8 03             	sar    eax,0x3
  4103f5:	89 c2                	mov    edx,eax
  4103f7:	8b 45 b8             	mov    eax,DWORD PTR [rbp-0x48]
  4103fa:	8d 70 01             	lea    esi,[rax+0x1]
  4103fd:	48 8b 05 ac ce 20 00 	mov    rax,QWORD PTR [rip+0x20ceac]        # 61d2b0 <stderr@GLIBC_2.2.5>
  410404:	89 d1                	mov    ecx,edx
  410406:	89 f2                	mov    edx,esi
  410408:	be b8 ac 41 00       	mov    esi,0x41acb8
  41040d:	48 89 c7             	mov    rdi,rax
  410410:	b8 00 00 00 00       	mov    eax,0x0
  410415:	e8 d6 0d ff ff       	call   4011f0 <fprintf@plt>
  41041a:	c7 45 d8 00 00 00 00 	mov    DWORD PTR [rbp-0x28],0x0
  410421:	eb 29                	jmp    41044c <sendMTFValues+0x355e>
  410423:	8b 45 d8             	mov    eax,DWORD PTR [rbp-0x28]
  410426:	48 98                	cdqe   
  410428:	8b 94 85 30 ff ff ff 	mov    edx,DWORD PTR [rbp+rax*4-0xd0]
  41042f:	48 8b 05 7a ce 20 00 	mov    rax,QWORD PTR [rip+0x20ce7a]        # 61d2b0 <stderr@GLIBC_2.2.5>
  410436:	be e1 ac 41 00       	mov    esi,0x41ace1
  41043b:	48 89 c7             	mov    rdi,rax
  41043e:	b8 00 00 00 00       	mov    eax,0x0
  410443:	e8 a8 0d ff ff       	call   4011f0 <fprintf@plt>
  410448:	83 45 d8 01          	add    DWORD PTR [rbp-0x28],0x1
  41044c:	8b 45 d8             	mov    eax,DWORD PTR [rbp-0x28]
  41044f:	3b 45 a4             	cmp    eax,DWORD PTR [rbp-0x5c]
  410452:	7c cf                	jl     410423 <sendMTFValues+0x3535>
  410454:	48 8b 05 55 ce 20 00 	mov    rax,QWORD PTR [rip+0x20ce55]        # 61d2b0 <stderr@GLIBC_2.2.5>
  41045b:	48 89 c6             	mov    rsi,rax
  41045e:	bf 0a 00 00 00       	mov    edi,0xa
  410463:	e8 38 0d ff ff       	call   4011a0 <fputc@plt>
  410468:	c7 45 d8 00 00 00 00 	mov    DWORD PTR [rbp-0x28],0x0
  41046f:	eb 62                	jmp    4104d3 <sendMTFValues+0x35e5>
  410471:	8b 45 d8             	mov    eax,DWORD PTR [rbp-0x28]
  410474:	48 98                	cdqe   
  410476:	48 c1 e0 03          	shl    rax,0x3
  41047a:	48 89 c2             	mov    rdx,rax
  41047d:	48 c1 e2 07          	shl    rdx,0x7
  410481:	48 01 d0             	add    rax,rdx
  410484:	48 8d 90 80 b1 00 00 	lea    rdx,[rax+0xb180]
  41048b:	48 8b 85 08 ff ff ff 	mov    rax,QWORD PTR [rbp-0xf8]
  410492:	48 01 d0             	add    rax,rdx
  410495:	48 8d 70 08          	lea    rsi,[rax+0x8]
  410499:	8b 45 d8             	mov    eax,DWORD PTR [rbp-0x28]
  41049c:	48 98                	cdqe   
  41049e:	48 01 c0             	add    rax,rax
  4104a1:	48 89 c2             	mov    rdx,rax
  4104a4:	48 c1 e2 07          	shl    rdx,0x7
  4104a8:	48 01 d0             	add    rax,rdx
  4104ab:	48 8d 90 40 93 00 00 	lea    rdx,[rax+0x9340]
  4104b2:	48 8b 85 08 ff ff ff 	mov    rax,QWORD PTR [rbp-0xf8]
  4104b9:	48 01 d0             	add    rax,rdx
  4104bc:	48 8d 78 0c          	lea    rdi,[rax+0xc]
  4104c0:	8b 45 84             	mov    eax,DWORD PTR [rbp-0x7c]
  4104c3:	b9 11 00 00 00       	mov    ecx,0x11
  4104c8:	89 c2                	mov    edx,eax
  4104ca:	e8 85 78 00 00       	call   417d54 <BZ2_hbMakeCodeLengths>
  4104cf:	83 45 d8 01          	add    DWORD PTR [rbp-0x28],0x1
  4104d3:	8b 45 d8             	mov    eax,DWORD PTR [rbp-0x28]
  4104d6:	3b 45 a4             	cmp    eax,DWORD PTR [rbp-0x5c]
  4104d9:	7c 96                	jl     410471 <sendMTFValues+0x3583>
  4104db:	83 45 b8 01          	add    DWORD PTR [rbp-0x48],0x1
  4104df:	83 7d b8 03          	cmp    DWORD PTR [rbp-0x48],0x3
  4104e3:	0f 8e 69 cd ff ff    	jle    40d252 <sendMTFValues+0x364>
  4104e9:	83 7d a4 07          	cmp    DWORD PTR [rbp-0x5c],0x7
  4104ed:	7e 0a                	jle    4104f9 <sendMTFValues+0x360b>
  4104ef:	bf ba 0b 00 00       	mov    edi,0xbba
  4104f4:	e8 af 49 ff ff       	call   404ea8 <BZ2_bz__AssertH__fail>
  4104f9:	81 7d b4 ff 7f 00 00 	cmp    DWORD PTR [rbp-0x4c],0x7fff
  410500:	7f 09                	jg     41050b <sendMTFValues+0x361d>
  410502:	81 7d b4 52 46 00 00 	cmp    DWORD PTR [rbp-0x4c],0x4652
  410509:	7e 0a                	jle    410515 <sendMTFValues+0x3627>
  41050b:	bf bb 0b 00 00       	mov    edi,0xbbb
  410510:	e8 93 49 ff ff       	call   404ea8 <BZ2_bz__AssertH__fail>
  410515:	c7 45 d4 00 00 00 00 	mov    DWORD PTR [rbp-0x2c],0x0
  41051c:	eb 15                	jmp    410533 <sendMTFValues+0x3645>
  41051e:	8b 45 d4             	mov    eax,DWORD PTR [rbp-0x2c]
  410521:	89 c2                	mov    edx,eax
  410523:	8b 45 d4             	mov    eax,DWORD PTR [rbp-0x2c]
  410526:	48 98                	cdqe   
  410528:	88 94 05 20 ff ff ff 	mov    BYTE PTR [rbp+rax*1-0xe0],dl
  41052f:	83 45 d4 01          	add    DWORD PTR [rbp-0x2c],0x1
  410533:	8b 45 d4             	mov    eax,DWORD PTR [rbp-0x2c]
  410536:	3b 45 a4             	cmp    eax,DWORD PTR [rbp-0x5c]
  410539:	7c e3                	jl     41051e <sendMTFValues+0x3630>
  41053b:	c7 45 d4 00 00 00 00 	mov    DWORD PTR [rbp-0x2c],0x0
  410542:	e9 96 00 00 00       	jmp    4105dd <sendMTFValues+0x36ef>
  410547:	48 8b 95 08 ff ff ff 	mov    rdx,QWORD PTR [rbp-0xf8]
  41054e:	8b 45 d4             	mov    eax,DWORD PTR [rbp-0x2c]
  410551:	48 98                	cdqe   
  410553:	0f b6 84 02 a8 06 00 	movzx  eax,BYTE PTR [rdx+rax*1+0x6a8]
  41055a:	00 
  41055b:	88 85 7d ff ff ff    	mov    BYTE PTR [rbp-0x83],al
  410561:	c7 45 d0 00 00 00 00 	mov    DWORD PTR [rbp-0x30],0x0
  410568:	8b 45 d0             	mov    eax,DWORD PTR [rbp-0x30]
  41056b:	48 98                	cdqe   
  41056d:	0f b6 84 05 20 ff ff 	movzx  eax,BYTE PTR [rbp+rax*1-0xe0]
  410574:	ff 
  410575:	88 45 97             	mov    BYTE PTR [rbp-0x69],al
  410578:	eb 31                	jmp    4105ab <sendMTFValues+0x36bd>
  41057a:	83 45 d0 01          	add    DWORD PTR [rbp-0x30],0x1
  41057e:	0f b6 45 97          	movzx  eax,BYTE PTR [rbp-0x69]
  410582:	88 85 7c ff ff ff    	mov    BYTE PTR [rbp-0x84],al
  410588:	8b 45 d0             	mov    eax,DWORD PTR [rbp-0x30]
  41058b:	48 98                	cdqe   
  41058d:	0f b6 84 05 20 ff ff 	movzx  eax,BYTE PTR [rbp+rax*1-0xe0]
  410594:	ff 
  410595:	88 45 97             	mov    BYTE PTR [rbp-0x69],al
  410598:	8b 45 d0             	mov    eax,DWORD PTR [rbp-0x30]
  41059b:	48 98                	cdqe   
  41059d:	0f b6 95 7c ff ff ff 	movzx  edx,BYTE PTR [rbp-0x84]
  4105a4:	88 94 05 20 ff ff ff 	mov    BYTE PTR [rbp+rax*1-0xe0],dl
  4105ab:	0f b6 85 7d ff ff ff 	movzx  eax,BYTE PTR [rbp-0x83]
  4105b2:	3a 45 97             	cmp    al,BYTE PTR [rbp-0x69]
  4105b5:	75 c3                	jne    41057a <sendMTFValues+0x368c>
  4105b7:	0f b6 45 97          	movzx  eax,BYTE PTR [rbp-0x69]
  4105bb:	88 85 20 ff ff ff    	mov    BYTE PTR [rbp-0xe0],al
  4105c1:	8b 45 d0             	mov    eax,DWORD PTR [rbp-0x30]
  4105c4:	89 c1                	mov    ecx,eax
  4105c6:	48 8b 95 08 ff ff ff 	mov    rdx,QWORD PTR [rbp-0xf8]
  4105cd:	8b 45 d4             	mov    eax,DWORD PTR [rbp-0x2c]
  4105d0:	48 98                	cdqe   
  4105d2:	88 8c 02 fa 4c 00 00 	mov    BYTE PTR [rdx+rax*1+0x4cfa],cl
  4105d9:	83 45 d4 01          	add    DWORD PTR [rbp-0x2c],0x1
  4105dd:	8b 45 d4             	mov    eax,DWORD PTR [rbp-0x2c]
  4105e0:	3b 45 b4             	cmp    eax,DWORD PTR [rbp-0x4c]
  4105e3:	0f 8c 5e ff ff ff    	jl     410547 <sendMTFValues+0x3659>
  4105e9:	c7 45 d8 00 00 00 00 	mov    DWORD PTR [rbp-0x28],0x0
  4105f0:	e9 8a 01 00 00       	jmp    41077f <sendMTFValues+0x3891>
  4105f5:	c7 45 b0 20 00 00 00 	mov    DWORD PTR [rbp-0x50],0x20
  4105fc:	c7 45 ac 00 00 00 00 	mov    DWORD PTR [rbp-0x54],0x0
  410603:	c7 45 d4 00 00 00 00 	mov    DWORD PTR [rbp-0x2c],0x0
  41060a:	e9 dc 00 00 00       	jmp    4106eb <sendMTFValues+0x37fd>
  41060f:	48 8b 8d 08 ff ff ff 	mov    rcx,QWORD PTR [rbp-0xf8]
  410616:	8b 45 d4             	mov    eax,DWORD PTR [rbp-0x2c]
  410619:	48 63 d0             	movsxd rdx,eax
  41061c:	8b 45 d8             	mov    eax,DWORD PTR [rbp-0x28]
  41061f:	48 98                	cdqe   
  410621:	48 01 c0             	add    rax,rax
  410624:	48 89 c6             	mov    rsi,rax
  410627:	48 c1 e6 07          	shl    rsi,0x7
  41062b:	48 01 f0             	add    rax,rsi
  41062e:	48 01 c8             	add    rax,rcx
  410631:	48 01 d0             	add    rax,rdx
  410634:	48 05 40 93 00 00    	add    rax,0x9340
  41063a:	0f b6 40 0c          	movzx  eax,BYTE PTR [rax+0xc]
  41063e:	0f b6 c0             	movzx  eax,al
  410641:	3b 45 ac             	cmp    eax,DWORD PTR [rbp-0x54]
  410644:	7e 35                	jle    41067b <sendMTFValues+0x378d>
  410646:	48 8b 8d 08 ff ff ff 	mov    rcx,QWORD PTR [rbp-0xf8]
  41064d:	8b 45 d4             	mov    eax,DWORD PTR [rbp-0x2c]
  410650:	48 63 d0             	movsxd rdx,eax
  410653:	8b 45 d8             	mov    eax,DWORD PTR [rbp-0x28]
  410656:	48 98                	cdqe   
  410658:	48 01 c0             	add    rax,rax
  41065b:	48 89 c6             	mov    rsi,rax
  41065e:	48 c1 e6 07          	shl    rsi,0x7
  410662:	48 01 f0             	add    rax,rsi
  410665:	48 01 c8             	add    rax,rcx
  410668:	48 01 d0             	add    rax,rdx
  41066b:	48 05 40 93 00 00    	add    rax,0x9340
  410671:	0f b6 40 0c          	movzx  eax,BYTE PTR [rax+0xc]
  410675:	0f b6 c0             	movzx  eax,al
  410678:	89 45 ac             	mov    DWORD PTR [rbp-0x54],eax
  41067b:	48 8b 8d 08 ff ff ff 	mov    rcx,QWORD PTR [rbp-0xf8]
  410682:	8b 45 d4             	mov    eax,DWORD PTR [rbp-0x2c]
  410685:	48 63 d0             	movsxd rdx,eax
  410688:	8b 45 d8             	mov    eax,DWORD PTR [rbp-0x28]
  41068b:	48 98                	cdqe   
  41068d:	48 01 c0             	add    rax,rax
  410690:	48 89 c6             	mov    rsi,rax
  410693:	48 c1 e6 07          	shl    rsi,0x7
  410697:	48 01 f0             	add    rax,rsi
  41069a:	48 01 c8             	add    rax,rcx
  41069d:	48 01 d0             	add    rax,rdx
  4106a0:	48 05 40 93 00 00    	add    rax,0x9340
  4106a6:	0f b6 40 0c          	movzx  eax,BYTE PTR [rax+0xc]
  4106aa:	0f b6 c0             	movzx  eax,al
  4106ad:	3b 45 b0             	cmp    eax,DWORD PTR [rbp-0x50]
  4106b0:	7d 35                	jge    4106e7 <sendMTFValues+0x37f9>
  4106b2:	48 8b 8d 08 ff ff ff 	mov    rcx,QWORD PTR [rbp-0xf8]
  4106b9:	8b 45 d4             	mov    eax,DWORD PTR [rbp-0x2c]
  4106bc:	48 63 d0             	movsxd rdx,eax
  4106bf:	8b 45 d8             	mov    eax,DWORD PTR [rbp-0x28]
  4106c2:	48 98                	cdqe   
  4106c4:	48 01 c0             	add    rax,rax
  4106c7:	48 89 c6             	mov    rsi,rax
  4106ca:	48 c1 e6 07          	shl    rsi,0x7
  4106ce:	48 01 f0             	add    rax,rsi
  4106d1:	48 01 c8             	add    rax,rcx
  4106d4:	48 01 d0             	add    rax,rdx
  4106d7:	48 05 40 93 00 00    	add    rax,0x9340
  4106dd:	0f b6 40 0c          	movzx  eax,BYTE PTR [rax+0xc]
  4106e1:	0f b6 c0             	movzx  eax,al
  4106e4:	89 45 b0             	mov    DWORD PTR [rbp-0x50],eax
  4106e7:	83 45 d4 01          	add    DWORD PTR [rbp-0x2c],0x1
  4106eb:	8b 45 d4             	mov    eax,DWORD PTR [rbp-0x2c]
  4106ee:	3b 45 84             	cmp    eax,DWORD PTR [rbp-0x7c]
  4106f1:	0f 8c 18 ff ff ff    	jl     41060f <sendMTFValues+0x3721>
  4106f7:	83 7d ac 11          	cmp    DWORD PTR [rbp-0x54],0x11
  4106fb:	7e 0a                	jle    410707 <sendMTFValues+0x3819>
  4106fd:	bf bc 0b 00 00       	mov    edi,0xbbc
  410702:	e8 a1 47 ff ff       	call   404ea8 <BZ2_bz__AssertH__fail>
  410707:	83 7d b0 00          	cmp    DWORD PTR [rbp-0x50],0x0
  41070b:	7f 0a                	jg     410717 <sendMTFValues+0x3829>
  41070d:	bf bd 0b 00 00       	mov    edi,0xbbd
  410712:	e8 91 47 ff ff       	call   404ea8 <BZ2_bz__AssertH__fail>
  410717:	8b 45 d8             	mov    eax,DWORD PTR [rbp-0x28]
  41071a:	48 98                	cdqe   
  41071c:	48 01 c0             	add    rax,rax
  41071f:	48 89 c2             	mov    rdx,rax
  410722:	48 c1 e2 07          	shl    rdx,0x7
  410726:	48 01 d0             	add    rax,rdx
  410729:	48 8d 90 40 93 00 00 	lea    rdx,[rax+0x9340]
  410730:	48 8b 85 08 ff ff ff 	mov    rax,QWORD PTR [rbp-0xf8]
  410737:	48 01 d0             	add    rax,rdx
  41073a:	48 8d 70 0c          	lea    rsi,[rax+0xc]
  41073e:	8b 45 d8             	mov    eax,DWORD PTR [rbp-0x28]
  410741:	48 98                	cdqe   
  410743:	48 c1 e0 03          	shl    rax,0x3
  410747:	48 89 c2             	mov    rdx,rax
  41074a:	48 c1 e2 07          	shl    rdx,0x7
  41074e:	48 01 d0             	add    rax,rdx
  410751:	48 8d 90 50 99 00 00 	lea    rdx,[rax+0x9950]
  410758:	48 8b 85 08 ff ff ff 	mov    rax,QWORD PTR [rbp-0xf8]
  41075f:	48 01 d0             	add    rax,rdx
  410762:	48 8d 78 08          	lea    rdi,[rax+0x8]
  410766:	8b 4d 84             	mov    ecx,DWORD PTR [rbp-0x7c]
  410769:	8b 55 ac             	mov    edx,DWORD PTR [rbp-0x54]
  41076c:	8b 45 b0             	mov    eax,DWORD PTR [rbp-0x50]
  41076f:	41 89 c8             	mov    r8d,ecx
  410772:	89 d1                	mov    ecx,edx
  410774:	89 c2                	mov    edx,eax
  410776:	e8 19 7b 00 00       	call   418294 <BZ2_hbAssignCodes>
  41077b:	83 45 d8 01          	add    DWORD PTR [rbp-0x28],0x1
  41077f:	8b 45 d8             	mov    eax,DWORD PTR [rbp-0x28]
  410782:	3b 45 a4             	cmp    eax,DWORD PTR [rbp-0x5c]
  410785:	0f 8c 6a fe ff ff    	jl     4105f5 <sendMTFValues+0x3707>
  41078b:	c7 45 d4 00 00 00 00 	mov    DWORD PTR [rbp-0x2c],0x0
  410792:	eb 53                	jmp    4107e7 <sendMTFValues+0x38f9>
  410794:	8b 45 d4             	mov    eax,DWORD PTR [rbp-0x2c]
  410797:	48 98                	cdqe   
  410799:	c6 84 05 10 ff ff ff 	mov    BYTE PTR [rbp+rax*1-0xf0],0x0
  4107a0:	00 
  4107a1:	c7 45 d0 00 00 00 00 	mov    DWORD PTR [rbp-0x30],0x0
  4107a8:	eb 33                	jmp    4107dd <sendMTFValues+0x38ef>
  4107aa:	8b 45 d4             	mov    eax,DWORD PTR [rbp-0x2c]
  4107ad:	89 c2                	mov    edx,eax
  4107af:	c1 e2 04             	shl    edx,0x4
  4107b2:	8b 45 d0             	mov    eax,DWORD PTR [rbp-0x30]
  4107b5:	01 d0                	add    eax,edx
  4107b7:	48 8b 95 08 ff ff ff 	mov    rdx,QWORD PTR [rbp-0xf8]
  4107be:	48 98                	cdqe   
  4107c0:	0f b6 84 02 80 00 00 	movzx  eax,BYTE PTR [rdx+rax*1+0x80]
  4107c7:	00 
  4107c8:	84 c0                	test   al,al
  4107ca:	74 0d                	je     4107d9 <sendMTFValues+0x38eb>
  4107cc:	8b 45 d4             	mov    eax,DWORD PTR [rbp-0x2c]
  4107cf:	48 98                	cdqe   
  4107d1:	c6 84 05 10 ff ff ff 	mov    BYTE PTR [rbp+rax*1-0xf0],0x1
  4107d8:	01 
  4107d9:	83 45 d0 01          	add    DWORD PTR [rbp-0x30],0x1
  4107dd:	83 7d d0 0f          	cmp    DWORD PTR [rbp-0x30],0xf
  4107e1:	7e c7                	jle    4107aa <sendMTFValues+0x38bc>
  4107e3:	83 45 d4 01          	add    DWORD PTR [rbp-0x2c],0x1
  4107e7:	83 7d d4 0f          	cmp    DWORD PTR [rbp-0x2c],0xf
  4107eb:	7e a7                	jle    410794 <sendMTFValues+0x38a6>
  4107ed:	48 8b 85 08 ff ff ff 	mov    rax,QWORD PTR [rbp-0xf8]
  4107f4:	8b 40 74             	mov    eax,DWORD PTR [rax+0x74]
  4107f7:	89 85 78 ff ff ff    	mov    DWORD PTR [rbp-0x88],eax
  4107fd:	c7 45 d4 00 00 00 00 	mov    DWORD PTR [rbp-0x2c],0x0
  410804:	eb 49                	jmp    41084f <sendMTFValues+0x3961>
  410806:	8b 45 d4             	mov    eax,DWORD PTR [rbp-0x2c]
  410809:	48 98                	cdqe   
  41080b:	0f b6 84 05 10 ff ff 	movzx  eax,BYTE PTR [rbp+rax*1-0xf0]
  410812:	ff 
  410813:	84 c0                	test   al,al
  410815:	74 1b                	je     410832 <sendMTFValues+0x3944>
  410817:	48 8b 85 08 ff ff ff 	mov    rax,QWORD PTR [rbp-0xf8]
  41081e:	ba 01 00 00 00       	mov    edx,0x1
  410823:	be 01 00 00 00       	mov    esi,0x1
  410828:	48 89 c7             	mov    rdi,rax
  41082b:	e8 1c c1 ff ff       	call   40c94c <bsW>
  410830:	eb 19                	jmp    41084b <sendMTFValues+0x395d>
  410832:	48 8b 85 08 ff ff ff 	mov    rax,QWORD PTR [rbp-0xf8]
  410839:	ba 00 00 00 00       	mov    edx,0x0
  41083e:	be 01 00 00 00       	mov    esi,0x1
  410843:	48 89 c7             	mov    rdi,rax
  410846:	e8 01 c1 ff ff       	call   40c94c <bsW>
  41084b:	83 45 d4 01          	add    DWORD PTR [rbp-0x2c],0x1
  41084f:	83 7d d4 0f          	cmp    DWORD PTR [rbp-0x2c],0xf
  410853:	7e b1                	jle    410806 <sendMTFValues+0x3918>
  410855:	c7 45 d4 00 00 00 00 	mov    DWORD PTR [rbp-0x2c],0x0
  41085c:	eb 7e                	jmp    4108dc <sendMTFValues+0x39ee>
  41085e:	8b 45 d4             	mov    eax,DWORD PTR [rbp-0x2c]
  410861:	48 98                	cdqe   
  410863:	0f b6 84 05 10 ff ff 	movzx  eax,BYTE PTR [rbp+rax*1-0xf0]
  41086a:	ff 
  41086b:	84 c0                	test   al,al
  41086d:	74 69                	je     4108d8 <sendMTFValues+0x39ea>
  41086f:	c7 45 d0 00 00 00 00 	mov    DWORD PTR [rbp-0x30],0x0
  410876:	eb 5a                	jmp    4108d2 <sendMTFValues+0x39e4>
  410878:	8b 45 d4             	mov    eax,DWORD PTR [rbp-0x2c]
  41087b:	89 c2                	mov    edx,eax
  41087d:	c1 e2 04             	shl    edx,0x4
  410880:	8b 45 d0             	mov    eax,DWORD PTR [rbp-0x30]
  410883:	01 d0                	add    eax,edx
  410885:	48 8b 95 08 ff ff ff 	mov    rdx,QWORD PTR [rbp-0xf8]
  41088c:	48 98                	cdqe   
  41088e:	0f b6 84 02 80 00 00 	movzx  eax,BYTE PTR [rdx+rax*1+0x80]
  410895:	00 
  410896:	84 c0                	test   al,al
  410898:	74 1b                	je     4108b5 <sendMTFValues+0x39c7>
  41089a:	48 8b 85 08 ff ff ff 	mov    rax,QWORD PTR [rbp-0xf8]
  4108a1:	ba 01 00 00 00       	mov    edx,0x1
  4108a6:	be 01 00 00 00       	mov    esi,0x1
  4108ab:	48 89 c7             	mov    rdi,rax
  4108ae:	e8 99 c0 ff ff       	call   40c94c <bsW>
  4108b3:	eb 19                	jmp    4108ce <sendMTFValues+0x39e0>
  4108b5:	48 8b 85 08 ff ff ff 	mov    rax,QWORD PTR [rbp-0xf8]
  4108bc:	ba 00 00 00 00       	mov    edx,0x0
  4108c1:	be 01 00 00 00       	mov    esi,0x1
  4108c6:	48 89 c7             	mov    rdi,rax
  4108c9:	e8 7e c0 ff ff       	call   40c94c <bsW>
  4108ce:	83 45 d0 01          	add    DWORD PTR [rbp-0x30],0x1
  4108d2:	83 7d d0 0f          	cmp    DWORD PTR [rbp-0x30],0xf
  4108d6:	7e a0                	jle    410878 <sendMTFValues+0x398a>
  4108d8:	83 45 d4 01          	add    DWORD PTR [rbp-0x2c],0x1
  4108dc:	83 7d d4 0f          	cmp    DWORD PTR [rbp-0x2c],0xf
  4108e0:	0f 8e 78 ff ff ff    	jle    41085e <sendMTFValues+0x3970>
  4108e6:	48 8b 85 08 ff ff ff 	mov    rax,QWORD PTR [rbp-0xf8]
  4108ed:	8b 80 90 02 00 00    	mov    eax,DWORD PTR [rax+0x290]
  4108f3:	83 f8 02             	cmp    eax,0x2
  4108f6:	7e 2b                	jle    410923 <sendMTFValues+0x3a35>
  4108f8:	48 8b 85 08 ff ff ff 	mov    rax,QWORD PTR [rbp-0xf8]
  4108ff:	8b 40 74             	mov    eax,DWORD PTR [rax+0x74]
  410902:	89 c2                	mov    edx,eax
  410904:	2b 95 78 ff ff ff    	sub    edx,DWORD PTR [rbp-0x88]
  41090a:	48 8b 05 9f c9 20 00 	mov    rax,QWORD PTR [rip+0x20c99f]        # 61d2b0 <stderr@GLIBC_2.2.5>
  410911:	be e5 ac 41 00       	mov    esi,0x41ace5
  410916:	48 89 c7             	mov    rdi,rax
  410919:	b8 00 00 00 00       	mov    eax,0x0
  41091e:	e8 cd 08 ff ff       	call   4011f0 <fprintf@plt>
  410923:	48 8b 85 08 ff ff ff 	mov    rax,QWORD PTR [rbp-0xf8]
  41092a:	8b 40 74             	mov    eax,DWORD PTR [rax+0x74]
  41092d:	89 85 78 ff ff ff    	mov    DWORD PTR [rbp-0x88],eax
  410933:	8b 55 a4             	mov    edx,DWORD PTR [rbp-0x5c]
  410936:	48 8b 85 08 ff ff ff 	mov    rax,QWORD PTR [rbp-0xf8]
  41093d:	be 03 00 00 00       	mov    esi,0x3
  410942:	48 89 c7             	mov    rdi,rax
  410945:	e8 02 c0 ff ff       	call   40c94c <bsW>
  41094a:	8b 55 b4             	mov    edx,DWORD PTR [rbp-0x4c]
  41094d:	48 8b 85 08 ff ff ff 	mov    rax,QWORD PTR [rbp-0xf8]
  410954:	be 0f 00 00 00       	mov    esi,0xf
  410959:	48 89 c7             	mov    rdi,rax
  41095c:	e8 eb bf ff ff       	call   40c94c <bsW>
  410961:	c7 45 d4 00 00 00 00 	mov    DWORD PTR [rbp-0x2c],0x0
  410968:	eb 5f                	jmp    4109c9 <sendMTFValues+0x3adb>
  41096a:	c7 45 d0 00 00 00 00 	mov    DWORD PTR [rbp-0x30],0x0
  410971:	eb 1d                	jmp    410990 <sendMTFValues+0x3aa2>
  410973:	48 8b 85 08 ff ff ff 	mov    rax,QWORD PTR [rbp-0xf8]
  41097a:	ba 01 00 00 00       	mov    edx,0x1
  41097f:	be 01 00 00 00       	mov    esi,0x1
  410984:	48 89 c7             	mov    rdi,rax
  410987:	e8 c0 bf ff ff       	call   40c94c <bsW>
  41098c:	83 45 d0 01          	add    DWORD PTR [rbp-0x30],0x1
  410990:	48 8b 95 08 ff ff ff 	mov    rdx,QWORD PTR [rbp-0xf8]
  410997:	8b 45 d4             	mov    eax,DWORD PTR [rbp-0x2c]
  41099a:	48 98                	cdqe   
  41099c:	0f b6 84 02 fa 4c 00 	movzx  eax,BYTE PTR [rdx+rax*1+0x4cfa]
  4109a3:	00 
  4109a4:	0f b6 c0             	movzx  eax,al
  4109a7:	3b 45 d0             	cmp    eax,DWORD PTR [rbp-0x30]
  4109aa:	7f c7                	jg     410973 <sendMTFValues+0x3a85>
  4109ac:	48 8b 85 08 ff ff ff 	mov    rax,QWORD PTR [rbp-0xf8]
  4109b3:	ba 00 00 00 00       	mov    edx,0x0
  4109b8:	be 01 00 00 00       	mov    esi,0x1
  4109bd:	48 89 c7             	mov    rdi,rax
  4109c0:	e8 87 bf ff ff       	call   40c94c <bsW>
  4109c5:	83 45 d4 01          	add    DWORD PTR [rbp-0x2c],0x1
  4109c9:	8b 45 d4             	mov    eax,DWORD PTR [rbp-0x2c]
  4109cc:	3b 45 b4             	cmp    eax,DWORD PTR [rbp-0x4c]
  4109cf:	7c 99                	jl     41096a <sendMTFValues+0x3a7c>
  4109d1:	48 8b 85 08 ff ff ff 	mov    rax,QWORD PTR [rbp-0xf8]
  4109d8:	8b 80 90 02 00 00    	mov    eax,DWORD PTR [rax+0x290]
  4109de:	83 f8 02             	cmp    eax,0x2
  4109e1:	7e 2b                	jle    410a0e <sendMTFValues+0x3b20>
  4109e3:	48 8b 85 08 ff ff ff 	mov    rax,QWORD PTR [rbp-0xf8]
  4109ea:	8b 40 74             	mov    eax,DWORD PTR [rax+0x74]
  4109ed:	89 c2                	mov    edx,eax
  4109ef:	2b 95 78 ff ff ff    	sub    edx,DWORD PTR [rbp-0x88]
  4109f5:	48 8b 05 b4 c8 20 00 	mov    rax,QWORD PTR [rip+0x20c8b4]        # 61d2b0 <stderr@GLIBC_2.2.5>
  4109fc:	be ff ac 41 00       	mov    esi,0x41acff
  410a01:	48 89 c7             	mov    rdi,rax
  410a04:	b8 00 00 00 00       	mov    eax,0x0
  410a09:	e8 e2 07 ff ff       	call   4011f0 <fprintf@plt>
  410a0e:	48 8b 85 08 ff ff ff 	mov    rax,QWORD PTR [rbp-0xf8]
  410a15:	8b 40 74             	mov    eax,DWORD PTR [rax+0x74]
  410a18:	89 85 78 ff ff ff    	mov    DWORD PTR [rbp-0x88],eax
  410a1e:	c7 45 d8 00 00 00 00 	mov    DWORD PTR [rbp-0x28],0x0
  410a25:	e9 29 01 00 00       	jmp    410b53 <sendMTFValues+0x3c65>
  410a2a:	48 8b 95 08 ff ff ff 	mov    rdx,QWORD PTR [rbp-0xf8]
  410a31:	8b 45 d8             	mov    eax,DWORD PTR [rbp-0x28]
  410a34:	48 98                	cdqe   
  410a36:	48 01 c0             	add    rax,rax
  410a39:	48 89 c1             	mov    rcx,rax
  410a3c:	48 c1 e1 07          	shl    rcx,0x7
  410a40:	48 01 c8             	add    rax,rcx
  410a43:	48 01 d0             	add    rax,rdx
  410a46:	48 05 40 93 00 00    	add    rax,0x9340
  410a4c:	0f b6 40 0c          	movzx  eax,BYTE PTR [rax+0xc]
  410a50:	0f b6 c0             	movzx  eax,al
  410a53:	89 45 90             	mov    DWORD PTR [rbp-0x70],eax
  410a56:	8b 55 90             	mov    edx,DWORD PTR [rbp-0x70]
  410a59:	48 8b 85 08 ff ff ff 	mov    rax,QWORD PTR [rbp-0xf8]
  410a60:	be 05 00 00 00       	mov    esi,0x5
  410a65:	48 89 c7             	mov    rdi,rax
  410a68:	e8 df be ff ff       	call   40c94c <bsW>
  410a6d:	c7 45 d4 00 00 00 00 	mov    DWORD PTR [rbp-0x2c],0x0
  410a74:	e9 ca 00 00 00       	jmp    410b43 <sendMTFValues+0x3c55>
  410a79:	48 8b 85 08 ff ff ff 	mov    rax,QWORD PTR [rbp-0xf8]
  410a80:	ba 02 00 00 00       	mov    edx,0x2
  410a85:	be 02 00 00 00       	mov    esi,0x2
  410a8a:	48 89 c7             	mov    rdi,rax
  410a8d:	e8 ba be ff ff       	call   40c94c <bsW>
  410a92:	83 45 90 01          	add    DWORD PTR [rbp-0x70],0x1
  410a96:	eb 01                	jmp    410a99 <sendMTFValues+0x3bab>
  410a98:	90                   	nop
  410a99:	48 8b 8d 08 ff ff ff 	mov    rcx,QWORD PTR [rbp-0xf8]
  410aa0:	8b 45 d4             	mov    eax,DWORD PTR [rbp-0x2c]
  410aa3:	48 63 d0             	movsxd rdx,eax
  410aa6:	8b 45 d8             	mov    eax,DWORD PTR [rbp-0x28]
  410aa9:	48 98                	cdqe   
  410aab:	48 01 c0             	add    rax,rax
  410aae:	48 89 c6             	mov    rsi,rax
  410ab1:	48 c1 e6 07          	shl    rsi,0x7
  410ab5:	48 01 f0             	add    rax,rsi
  410ab8:	48 01 c8             	add    rax,rcx
  410abb:	48 01 d0             	add    rax,rdx
  410abe:	48 05 40 93 00 00    	add    rax,0x9340
  410ac4:	0f b6 40 0c          	movzx  eax,BYTE PTR [rax+0xc]
  410ac8:	0f b6 c0             	movzx  eax,al
  410acb:	3b 45 90             	cmp    eax,DWORD PTR [rbp-0x70]
  410ace:	7f a9                	jg     410a79 <sendMTFValues+0x3b8b>
  410ad0:	eb 1d                	jmp    410aef <sendMTFValues+0x3c01>
  410ad2:	48 8b 85 08 ff ff ff 	mov    rax,QWORD PTR [rbp-0xf8]
  410ad9:	ba 03 00 00 00       	mov    edx,0x3
  410ade:	be 02 00 00 00       	mov    esi,0x2
  410ae3:	48 89 c7             	mov    rdi,rax
  410ae6:	e8 61 be ff ff       	call   40c94c <bsW>
  410aeb:	83 6d 90 01          	sub    DWORD PTR [rbp-0x70],0x1
  410aef:	48 8b 8d 08 ff ff ff 	mov    rcx,QWORD PTR [rbp-0xf8]
  410af6:	8b 45 d4             	mov    eax,DWORD PTR [rbp-0x2c]
  410af9:	48 63 d0             	movsxd rdx,eax
  410afc:	8b 45 d8             	mov    eax,DWORD PTR [rbp-0x28]
  410aff:	48 98                	cdqe   
  410b01:	48 01 c0             	add    rax,rax
  410b04:	48 89 c6             	mov    rsi,rax
  410b07:	48 c1 e6 07          	shl    rsi,0x7
  410b0b:	48 01 f0             	add    rax,rsi
  410b0e:	48 01 c8             	add    rax,rcx
  410b11:	48 01 d0             	add    rax,rdx
  410b14:	48 05 40 93 00 00    	add    rax,0x9340
  410b1a:	0f b6 40 0c          	movzx  eax,BYTE PTR [rax+0xc]
  410b1e:	0f b6 c0             	movzx  eax,al
  410b21:	3b 45 90             	cmp    eax,DWORD PTR [rbp-0x70]
  410b24:	7c ac                	jl     410ad2 <sendMTFValues+0x3be4>
  410b26:	48 8b 85 08 ff ff ff 	mov    rax,QWORD PTR [rbp-0xf8]
  410b2d:	ba 00 00 00 00       	mov    edx,0x0
  410b32:	be 01 00 00 00       	mov    esi,0x1
  410b37:	48 89 c7             	mov    rdi,rax
  410b3a:	e8 0d be ff ff       	call   40c94c <bsW>
  410b3f:	83 45 d4 01          	add    DWORD PTR [rbp-0x2c],0x1
  410b43:	8b 45 d4             	mov    eax,DWORD PTR [rbp-0x2c]
  410b46:	3b 45 84             	cmp    eax,DWORD PTR [rbp-0x7c]
  410b49:	0f 8c 49 ff ff ff    	jl     410a98 <sendMTFValues+0x3baa>
  410b4f:	83 45 d8 01          	add    DWORD PTR [rbp-0x28],0x1
  410b53:	8b 45 d8             	mov    eax,DWORD PTR [rbp-0x28]
  410b56:	3b 45 a4             	cmp    eax,DWORD PTR [rbp-0x5c]
  410b59:	0f 8c cb fe ff ff    	jl     410a2a <sendMTFValues+0x3b3c>
  410b5f:	48 8b 85 08 ff ff ff 	mov    rax,QWORD PTR [rbp-0xf8]
  410b66:	8b 80 90 02 00 00    	mov    eax,DWORD PTR [rax+0x290]
  410b6c:	83 f8 02             	cmp    eax,0x2
  410b6f:	7e 2b                	jle    410b9c <sendMTFValues+0x3cae>
  410b71:	48 8b 85 08 ff ff ff 	mov    rax,QWORD PTR [rbp-0xf8]
  410b78:	8b 40 74             	mov    eax,DWORD PTR [rax+0x74]
  410b7b:	89 c2                	mov    edx,eax
  410b7d:	2b 95 78 ff ff ff    	sub    edx,DWORD PTR [rbp-0x88]
  410b83:	48 8b 05 26 c7 20 00 	mov    rax,QWORD PTR [rip+0x20c726]        # 61d2b0 <stderr@GLIBC_2.2.5>
  410b8a:	be 0e ad 41 00       	mov    esi,0x41ad0e
  410b8f:	48 89 c7             	mov    rdi,rax
  410b92:	b8 00 00 00 00       	mov    eax,0x0
  410b97:	e8 54 06 ff ff       	call   4011f0 <fprintf@plt>
  410b9c:	48 8b 85 08 ff ff ff 	mov    rax,QWORD PTR [rbp-0xf8]
  410ba3:	8b 40 74             	mov    eax,DWORD PTR [rax+0x74]
  410ba6:	89 85 78 ff ff ff    	mov    DWORD PTR [rbp-0x88],eax
  410bac:	c7 45 a8 00 00 00 00 	mov    DWORD PTR [rbp-0x58],0x0
  410bb3:	c7 45 cc 00 00 00 00 	mov    DWORD PTR [rbp-0x34],0x0
  410bba:	48 8b 85 08 ff ff ff 	mov    rax,QWORD PTR [rbp-0xf8]
  410bc1:	8b 80 9c 02 00 00    	mov    eax,DWORD PTR [rax+0x29c]
  410bc7:	3b 45 cc             	cmp    eax,DWORD PTR [rbp-0x34]
  410bca:	0f 8e 3d 15 00 00    	jle    41210d <sendMTFValues+0x521f>
  410bd0:	8b 45 cc             	mov    eax,DWORD PTR [rbp-0x34]
  410bd3:	83 c0 31             	add    eax,0x31
  410bd6:	89 45 c8             	mov    DWORD PTR [rbp-0x38],eax
  410bd9:	48 8b 85 08 ff ff ff 	mov    rax,QWORD PTR [rbp-0xf8]
  410be0:	8b 80 9c 02 00 00    	mov    eax,DWORD PTR [rax+0x29c]
  410be6:	3b 45 c8             	cmp    eax,DWORD PTR [rbp-0x38]
  410be9:	7f 13                	jg     410bfe <sendMTFValues+0x3d10>
  410beb:	48 8b 85 08 ff ff ff 	mov    rax,QWORD PTR [rbp-0xf8]
  410bf2:	8b 80 9c 02 00 00    	mov    eax,DWORD PTR [rax+0x29c]
  410bf8:	83 e8 01             	sub    eax,0x1
  410bfb:	89 45 c8             	mov    DWORD PTR [rbp-0x38],eax
  410bfe:	48 8b 95 08 ff ff ff 	mov    rdx,QWORD PTR [rbp-0xf8]
  410c05:	8b 45 a8             	mov    eax,DWORD PTR [rbp-0x58]
  410c08:	48 98                	cdqe   
  410c0a:	0f b6 84 02 a8 06 00 	movzx  eax,BYTE PTR [rdx+rax*1+0x6a8]
  410c11:	00 
  410c12:	0f b6 c0             	movzx  eax,al
  410c15:	3b 45 a4             	cmp    eax,DWORD PTR [rbp-0x5c]
  410c18:	7c 0a                	jl     410c24 <sendMTFValues+0x3d36>
  410c1a:	bf be 0b 00 00       	mov    edi,0xbbe
  410c1f:	e8 84 42 ff ff       	call   404ea8 <BZ2_bz__AssertH__fail>
  410c24:	83 7d a4 06          	cmp    DWORD PTR [rbp-0x5c],0x6
  410c28:	0f 85 f1 13 00 00    	jne    41201f <sendMTFValues+0x5131>
  410c2e:	8b 45 cc             	mov    eax,DWORD PTR [rbp-0x34]
  410c31:	8b 55 c8             	mov    edx,DWORD PTR [rbp-0x38]
  410c34:	89 d1                	mov    ecx,edx
  410c36:	29 c1                	sub    ecx,eax
  410c38:	89 c8                	mov    eax,ecx
  410c3a:	83 f8 31             	cmp    eax,0x31
  410c3d:	0f 85 dc 13 00 00    	jne    41201f <sendMTFValues+0x5131>
  410c43:	48 8b 95 08 ff ff ff 	mov    rdx,QWORD PTR [rbp-0xf8]
  410c4a:	8b 45 a8             	mov    eax,DWORD PTR [rbp-0x58]
  410c4d:	48 98                	cdqe   
  410c4f:	0f b6 84 02 a8 06 00 	movzx  eax,BYTE PTR [rdx+rax*1+0x6a8]
  410c56:	00 
  410c57:	0f b6 c0             	movzx  eax,al
  410c5a:	48 98                	cdqe   
  410c5c:	48 01 c0             	add    rax,rax
  410c5f:	48 89 c2             	mov    rdx,rax
  410c62:	48 c1 e2 07          	shl    rdx,0x7
  410c66:	48 01 d0             	add    rax,rdx
  410c69:	48 8d 90 40 93 00 00 	lea    rdx,[rax+0x9340]
  410c70:	48 8b 85 08 ff ff ff 	mov    rax,QWORD PTR [rbp-0xf8]
  410c77:	48 01 d0             	add    rax,rdx
  410c7a:	48 83 c0 0c          	add    rax,0xc
  410c7e:	48 89 85 70 ff ff ff 	mov    QWORD PTR [rbp-0x90],rax
  410c85:	48 8b 95 08 ff ff ff 	mov    rdx,QWORD PTR [rbp-0xf8]
  410c8c:	8b 45 a8             	mov    eax,DWORD PTR [rbp-0x58]
  410c8f:	48 98                	cdqe   
  410c91:	0f b6 84 02 a8 06 00 	movzx  eax,BYTE PTR [rdx+rax*1+0x6a8]
  410c98:	00 
  410c99:	0f b6 c0             	movzx  eax,al
  410c9c:	48 98                	cdqe   
  410c9e:	48 c1 e0 03          	shl    rax,0x3
  410ca2:	48 89 c2             	mov    rdx,rax
  410ca5:	48 c1 e2 07          	shl    rdx,0x7
  410ca9:	48 01 d0             	add    rax,rdx
  410cac:	48 8d 90 50 99 00 00 	lea    rdx,[rax+0x9950]
  410cb3:	48 8b 85 08 ff ff ff 	mov    rax,QWORD PTR [rbp-0xf8]
  410cba:	48 01 d0             	add    rax,rdx
  410cbd:	48 83 c0 08          	add    rax,0x8
  410cc1:	48 89 85 68 ff ff ff 	mov    QWORD PTR [rbp-0x98],rax
  410cc8:	8b 45 cc             	mov    eax,DWORD PTR [rbp-0x34]
  410ccb:	48 98                	cdqe   
  410ccd:	48 8d 14 00          	lea    rdx,[rax+rax*1]
  410cd1:	48 8b 45 88          	mov    rax,QWORD PTR [rbp-0x78]
  410cd5:	48 01 d0             	add    rax,rdx
  410cd8:	0f b7 00             	movzx  eax,WORD PTR [rax]
  410cdb:	66 89 85 66 ff ff ff 	mov    WORD PTR [rbp-0x9a],ax
  410ce2:	0f b7 85 66 ff ff ff 	movzx  eax,WORD PTR [rbp-0x9a]
  410ce9:	48 8d 14 85 00 00 00 	lea    rdx,[rax*4+0x0]
  410cf0:	00 
  410cf1:	48 8b 85 68 ff ff ff 	mov    rax,QWORD PTR [rbp-0x98]
  410cf8:	48 01 d0             	add    rax,rdx
  410cfb:	8b 00                	mov    eax,DWORD PTR [rax]
  410cfd:	89 c2                	mov    edx,eax
  410cff:	0f b7 8d 66 ff ff ff 	movzx  ecx,WORD PTR [rbp-0x9a]
  410d06:	48 8b 85 70 ff ff ff 	mov    rax,QWORD PTR [rbp-0x90]
  410d0d:	48 01 c8             	add    rax,rcx
  410d10:	0f b6 00             	movzx  eax,BYTE PTR [rax]
  410d13:	0f b6 c8             	movzx  ecx,al
  410d16:	48 8b 85 08 ff ff ff 	mov    rax,QWORD PTR [rbp-0xf8]
  410d1d:	89 ce                	mov    esi,ecx
  410d1f:	48 89 c7             	mov    rdi,rax
  410d22:	e8 25 bc ff ff       	call   40c94c <bsW>
  410d27:	8b 45 cc             	mov    eax,DWORD PTR [rbp-0x34]
  410d2a:	48 98                	cdqe   
  410d2c:	48 83 c0 01          	add    rax,0x1
  410d30:	48 8d 14 00          	lea    rdx,[rax+rax*1]
  410d34:	48 8b 45 88          	mov    rax,QWORD PTR [rbp-0x78]
  410d38:	48 01 d0             	add    rax,rdx
  410d3b:	0f b7 00             	movzx  eax,WORD PTR [rax]
  410d3e:	66 89 85 66 ff ff ff 	mov    WORD PTR [rbp-0x9a],ax
  410d45:	0f b7 85 66 ff ff ff 	movzx  eax,WORD PTR [rbp-0x9a]
  410d4c:	48 8d 14 85 00 00 00 	lea    rdx,[rax*4+0x0]
  410d53:	00 
  410d54:	48 8b 85 68 ff ff ff 	mov    rax,QWORD PTR [rbp-0x98]
  410d5b:	48 01 d0             	add    rax,rdx
  410d5e:	8b 00                	mov    eax,DWORD PTR [rax]
  410d60:	89 c2                	mov    edx,eax
  410d62:	0f b7 8d 66 ff ff ff 	movzx  ecx,WORD PTR [rbp-0x9a]
  410d69:	48 8b 85 70 ff ff ff 	mov    rax,QWORD PTR [rbp-0x90]
  410d70:	48 01 c8             	add    rax,rcx
  410d73:	0f b6 00             	movzx  eax,BYTE PTR [rax]
  410d76:	0f b6 c8             	movzx  ecx,al
  410d79:	48 8b 85 08 ff ff ff 	mov    rax,QWORD PTR [rbp-0xf8]
  410d80:	89 ce                	mov    esi,ecx
  410d82:	48 89 c7             	mov    rdi,rax
  410d85:	e8 c2 bb ff ff       	call   40c94c <bsW>
  410d8a:	8b 45 cc             	mov    eax,DWORD PTR [rbp-0x34]
  410d8d:	48 98                	cdqe   
  410d8f:	48 83 c0 02          	add    rax,0x2
  410d93:	48 8d 14 00          	lea    rdx,[rax+rax*1]
  410d97:	48 8b 45 88          	mov    rax,QWORD PTR [rbp-0x78]
  410d9b:	48 01 d0             	add    rax,rdx
  410d9e:	0f b7 00             	movzx  eax,WORD PTR [rax]
  410da1:	66 89 85 66 ff ff ff 	mov    WORD PTR [rbp-0x9a],ax
  410da8:	0f b7 85 66 ff ff ff 	movzx  eax,WORD PTR [rbp-0x9a]
  410daf:	48 8d 14 85 00 00 00 	lea    rdx,[rax*4+0x0]
  410db6:	00 
  410db7:	48 8b 85 68 ff ff ff 	mov    rax,QWORD PTR [rbp-0x98]
  410dbe:	48 01 d0             	add    rax,rdx
  410dc1:	8b 00                	mov    eax,DWORD PTR [rax]
  410dc3:	89 c2                	mov    edx,eax
  410dc5:	0f b7 8d 66 ff ff ff 	movzx  ecx,WORD PTR [rbp-0x9a]
  410dcc:	48 8b 85 70 ff ff ff 	mov    rax,QWORD PTR [rbp-0x90]
  410dd3:	48 01 c8             	add    rax,rcx
  410dd6:	0f b6 00             	movzx  eax,BYTE PTR [rax]
  410dd9:	0f b6 c8             	movzx  ecx,al
  410ddc:	48 8b 85 08 ff ff ff 	mov    rax,QWORD PTR [rbp-0xf8]
  410de3:	89 ce                	mov    esi,ecx
  410de5:	48 89 c7             	mov    rdi,rax
  410de8:	e8 5f bb ff ff       	call   40c94c <bsW>
  410ded:	8b 45 cc             	mov    eax,DWORD PTR [rbp-0x34]
  410df0:	48 98                	cdqe   
  410df2:	48 83 c0 03          	add    rax,0x3
  410df6:	48 8d 14 00          	lea    rdx,[rax+rax*1]
  410dfa:	48 8b 45 88          	mov    rax,QWORD PTR [rbp-0x78]
  410dfe:	48 01 d0             	add    rax,rdx
  410e01:	0f b7 00             	movzx  eax,WORD PTR [rax]
  410e04:	66 89 85 66 ff ff ff 	mov    WORD PTR [rbp-0x9a],ax
  410e0b:	0f b7 85 66 ff ff ff 	movzx  eax,WORD PTR [rbp-0x9a]
  410e12:	48 8d 14 85 00 00 00 	lea    rdx,[rax*4+0x0]
  410e19:	00 
  410e1a:	48 8b 85 68 ff ff ff 	mov    rax,QWORD PTR [rbp-0x98]
  410e21:	48 01 d0             	add    rax,rdx
  410e24:	8b 00                	mov    eax,DWORD PTR [rax]
  410e26:	89 c2                	mov    edx,eax
  410e28:	0f b7 8d 66 ff ff ff 	movzx  ecx,WORD PTR [rbp-0x9a]
  410e2f:	48 8b 85 70 ff ff ff 	mov    rax,QWORD PTR [rbp-0x90]
  410e36:	48 01 c8             	add    rax,rcx
  410e39:	0f b6 00             	movzx  eax,BYTE PTR [rax]
  410e3c:	0f b6 c8             	movzx  ecx,al
  410e3f:	48 8b 85 08 ff ff ff 	mov    rax,QWORD PTR [rbp-0xf8]
  410e46:	89 ce                	mov    esi,ecx
  410e48:	48 89 c7             	mov    rdi,rax
  410e4b:	e8 fc ba ff ff       	call   40c94c <bsW>
  410e50:	8b 45 cc             	mov    eax,DWORD PTR [rbp-0x34]
  410e53:	48 98                	cdqe   
  410e55:	48 83 c0 04          	add    rax,0x4
  410e59:	48 8d 14 00          	lea    rdx,[rax+rax*1]
  410e5d:	48 8b 45 88          	mov    rax,QWORD PTR [rbp-0x78]
  410e61:	48 01 d0             	add    rax,rdx
  410e64:	0f b7 00             	movzx  eax,WORD PTR [rax]
  410e67:	66 89 85 66 ff ff ff 	mov    WORD PTR [rbp-0x9a],ax
  410e6e:	0f b7 85 66 ff ff ff 	movzx  eax,WORD PTR [rbp-0x9a]
  410e75:	48 8d 14 85 00 00 00 	lea    rdx,[rax*4+0x0]
  410e7c:	00 
  410e7d:	48 8b 85 68 ff ff ff 	mov    rax,QWORD PTR [rbp-0x98]
  410e84:	48 01 d0             	add    rax,rdx
  410e87:	8b 00                	mov    eax,DWORD PTR [rax]
  410e89:	89 c2                	mov    edx,eax
  410e8b:	0f b7 8d 66 ff ff ff 	movzx  ecx,WORD PTR [rbp-0x9a]
  410e92:	48 8b 85 70 ff ff ff 	mov    rax,QWORD PTR [rbp-0x90]
  410e99:	48 01 c8             	add    rax,rcx
  410e9c:	0f b6 00             	movzx  eax,BYTE PTR [rax]
  410e9f:	0f b6 c8             	movzx  ecx,al
  410ea2:	48 8b 85 08 ff ff ff 	mov    rax,QWORD PTR [rbp-0xf8]
  410ea9:	89 ce                	mov    esi,ecx
  410eab:	48 89 c7             	mov    rdi,rax
  410eae:	e8 99 ba ff ff       	call   40c94c <bsW>
  410eb3:	8b 45 cc             	mov    eax,DWORD PTR [rbp-0x34]
  410eb6:	48 98                	cdqe   
  410eb8:	48 83 c0 05          	add    rax,0x5
  410ebc:	48 8d 14 00          	lea    rdx,[rax+rax*1]
  410ec0:	48 8b 45 88          	mov    rax,QWORD PTR [rbp-0x78]
  410ec4:	48 01 d0             	add    rax,rdx
  410ec7:	0f b7 00             	movzx  eax,WORD PTR [rax]
  410eca:	66 89 85 66 ff ff ff 	mov    WORD PTR [rbp-0x9a],ax
  410ed1:	0f b7 85 66 ff ff ff 	movzx  eax,WORD PTR [rbp-0x9a]
  410ed8:	48 8d 14 85 00 00 00 	lea    rdx,[rax*4+0x0]
  410edf:	00 
  410ee0:	48 8b 85 68 ff ff ff 	mov    rax,QWORD PTR [rbp-0x98]
  410ee7:	48 01 d0             	add    rax,rdx
  410eea:	8b 00                	mov    eax,DWORD PTR [rax]
  410eec:	89 c2                	mov    edx,eax
  410eee:	0f b7 8d 66 ff ff ff 	movzx  ecx,WORD PTR [rbp-0x9a]
  410ef5:	48 8b 85 70 ff ff ff 	mov    rax,QWORD PTR [rbp-0x90]
  410efc:	48 01 c8             	add    rax,rcx
  410eff:	0f b6 00             	movzx  eax,BYTE PTR [rax]
  410f02:	0f b6 c8             	movzx  ecx,al
  410f05:	48 8b 85 08 ff ff ff 	mov    rax,QWORD PTR [rbp-0xf8]
  410f0c:	89 ce                	mov    esi,ecx
  410f0e:	48 89 c7             	mov    rdi,rax
  410f11:	e8 36 ba ff ff       	call   40c94c <bsW>
  410f16:	8b 45 cc             	mov    eax,DWORD PTR [rbp-0x34]
  410f19:	48 98                	cdqe   
  410f1b:	48 83 c0 06          	add    rax,0x6
  410f1f:	48 8d 14 00          	lea    rdx,[rax+rax*1]
  410f23:	48 8b 45 88          	mov    rax,QWORD PTR [rbp-0x78]
  410f27:	48 01 d0             	add    rax,rdx
  410f2a:	0f b7 00             	movzx  eax,WORD PTR [rax]
  410f2d:	66 89 85 66 ff ff ff 	mov    WORD PTR [rbp-0x9a],ax
  410f34:	0f b7 85 66 ff ff ff 	movzx  eax,WORD PTR [rbp-0x9a]
  410f3b:	48 8d 14 85 00 00 00 	lea    rdx,[rax*4+0x0]
  410f42:	00 
  410f43:	48 8b 85 68 ff ff ff 	mov    rax,QWORD PTR [rbp-0x98]
  410f4a:	48 01 d0             	add    rax,rdx
  410f4d:	8b 00                	mov    eax,DWORD PTR [rax]
  410f4f:	89 c2                	mov    edx,eax
  410f51:	0f b7 8d 66 ff ff ff 	movzx  ecx,WORD PTR [rbp-0x9a]
  410f58:	48 8b 85 70 ff ff ff 	mov    rax,QWORD PTR [rbp-0x90]
  410f5f:	48 01 c8             	add    rax,rcx
  410f62:	0f b6 00             	movzx  eax,BYTE PTR [rax]
  410f65:	0f b6 c8             	movzx  ecx,al
  410f68:	48 8b 85 08 ff ff ff 	mov    rax,QWORD PTR [rbp-0xf8]
  410f6f:	89 ce                	mov    esi,ecx
  410f71:	48 89 c7             	mov    rdi,rax
  410f74:	e8 d3 b9 ff ff       	call   40c94c <bsW>
  410f79:	8b 45 cc             	mov    eax,DWORD PTR [rbp-0x34]
  410f7c:	48 98                	cdqe   
  410f7e:	48 83 c0 07          	add    rax,0x7
  410f82:	48 8d 14 00          	lea    rdx,[rax+rax*1]
  410f86:	48 8b 45 88          	mov    rax,QWORD PTR [rbp-0x78]
  410f8a:	48 01 d0             	add    rax,rdx
  410f8d:	0f b7 00             	movzx  eax,WORD PTR [rax]
  410f90:	66 89 85 66 ff ff ff 	mov    WORD PTR [rbp-0x9a],ax
  410f97:	0f b7 85 66 ff ff ff 	movzx  eax,WORD PTR [rbp-0x9a]
  410f9e:	48 8d 14 85 00 00 00 	lea    rdx,[rax*4+0x0]
  410fa5:	00 
  410fa6:	48 8b 85 68 ff ff ff 	mov    rax,QWORD PTR [rbp-0x98]
  410fad:	48 01 d0             	add    rax,rdx
  410fb0:	8b 00                	mov    eax,DWORD PTR [rax]
  410fb2:	89 c2                	mov    edx,eax
  410fb4:	0f b7 8d 66 ff ff ff 	movzx  ecx,WORD PTR [rbp-0x9a]
  410fbb:	48 8b 85 70 ff ff ff 	mov    rax,QWORD PTR [rbp-0x90]
  410fc2:	48 01 c8             	add    rax,rcx
  410fc5:	0f b6 00             	movzx  eax,BYTE PTR [rax]
  410fc8:	0f b6 c8             	movzx  ecx,al
  410fcb:	48 8b 85 08 ff ff ff 	mov    rax,QWORD PTR [rbp-0xf8]
  410fd2:	89 ce                	mov    esi,ecx
  410fd4:	48 89 c7             	mov    rdi,rax
  410fd7:	e8 70 b9 ff ff       	call   40c94c <bsW>
  410fdc:	8b 45 cc             	mov    eax,DWORD PTR [rbp-0x34]
  410fdf:	48 98                	cdqe   
  410fe1:	48 83 c0 08          	add    rax,0x8
  410fe5:	48 8d 14 00          	lea    rdx,[rax+rax*1]
  410fe9:	48 8b 45 88          	mov    rax,QWORD PTR [rbp-0x78]
  410fed:	48 01 d0             	add    rax,rdx
  410ff0:	0f b7 00             	movzx  eax,WORD PTR [rax]
  410ff3:	66 89 85 66 ff ff ff 	mov    WORD PTR [rbp-0x9a],ax
  410ffa:	0f b7 85 66 ff ff ff 	movzx  eax,WORD PTR [rbp-0x9a]
  411001:	48 8d 14 85 00 00 00 	lea    rdx,[rax*4+0x0]
  411008:	00 
  411009:	48 8b 85 68 ff ff ff 	mov    rax,QWORD PTR [rbp-0x98]
  411010:	48 01 d0             	add    rax,rdx
  411013:	8b 00                	mov    eax,DWORD PTR [rax]
  411015:	89 c2                	mov    edx,eax
  411017:	0f b7 8d 66 ff ff ff 	movzx  ecx,WORD PTR [rbp-0x9a]
  41101e:	48 8b 85 70 ff ff ff 	mov    rax,QWORD PTR [rbp-0x90]
  411025:	48 01 c8             	add    rax,rcx
  411028:	0f b6 00             	movzx  eax,BYTE PTR [rax]
  41102b:	0f b6 c8             	movzx  ecx,al
  41102e:	48 8b 85 08 ff ff ff 	mov    rax,QWORD PTR [rbp-0xf8]
  411035:	89 ce                	mov    esi,ecx
  411037:	48 89 c7             	mov    rdi,rax
  41103a:	e8 0d b9 ff ff       	call   40c94c <bsW>
  41103f:	8b 45 cc             	mov    eax,DWORD PTR [rbp-0x34]
  411042:	48 98                	cdqe   
  411044:	48 83 c0 09          	add    rax,0x9
  411048:	48 8d 14 00          	lea    rdx,[rax+rax*1]
  41104c:	48 8b 45 88          	mov    rax,QWORD PTR [rbp-0x78]
  411050:	48 01 d0             	add    rax,rdx
  411053:	0f b7 00             	movzx  eax,WORD PTR [rax]
  411056:	66 89 85 66 ff ff ff 	mov    WORD PTR [rbp-0x9a],ax
  41105d:	0f b7 85 66 ff ff ff 	movzx  eax,WORD PTR [rbp-0x9a]
  411064:	48 8d 14 85 00 00 00 	lea    rdx,[rax*4+0x0]
  41106b:	00 
  41106c:	48 8b 85 68 ff ff ff 	mov    rax,QWORD PTR [rbp-0x98]
  411073:	48 01 d0             	add    rax,rdx
  411076:	8b 00                	mov    eax,DWORD PTR [rax]
  411078:	89 c2                	mov    edx,eax
  41107a:	0f b7 8d 66 ff ff ff 	movzx  ecx,WORD PTR [rbp-0x9a]
  411081:	48 8b 85 70 ff ff ff 	mov    rax,QWORD PTR [rbp-0x90]
  411088:	48 01 c8             	add    rax,rcx
  41108b:	0f b6 00             	movzx  eax,BYTE PTR [rax]
  41108e:	0f b6 c8             	movzx  ecx,al
  411091:	48 8b 85 08 ff ff ff 	mov    rax,QWORD PTR [rbp-0xf8]
  411098:	89 ce                	mov    esi,ecx
  41109a:	48 89 c7             	mov    rdi,rax
  41109d:	e8 aa b8 ff ff       	call   40c94c <bsW>
  4110a2:	8b 45 cc             	mov    eax,DWORD PTR [rbp-0x34]
  4110a5:	48 98                	cdqe   
  4110a7:	48 83 c0 0a          	add    rax,0xa
  4110ab:	48 8d 14 00          	lea    rdx,[rax+rax*1]
  4110af:	48 8b 45 88          	mov    rax,QWORD PTR [rbp-0x78]
  4110b3:	48 01 d0             	add    rax,rdx
  4110b6:	0f b7 00             	movzx  eax,WORD PTR [rax]
  4110b9:	66 89 85 66 ff ff ff 	mov    WORD PTR [rbp-0x9a],ax
  4110c0:	0f b7 85 66 ff ff ff 	movzx  eax,WORD PTR [rbp-0x9a]
  4110c7:	48 8d 14 85 00 00 00 	lea    rdx,[rax*4+0x0]
  4110ce:	00 
  4110cf:	48 8b 85 68 ff ff ff 	mov    rax,QWORD PTR [rbp-0x98]
  4110d6:	48 01 d0             	add    rax,rdx
  4110d9:	8b 00                	mov    eax,DWORD PTR [rax]
  4110db:	89 c2                	mov    edx,eax
  4110dd:	0f b7 8d 66 ff ff ff 	movzx  ecx,WORD PTR [rbp-0x9a]
  4110e4:	48 8b 85 70 ff ff ff 	mov    rax,QWORD PTR [rbp-0x90]
  4110eb:	48 01 c8             	add    rax,rcx
  4110ee:	0f b6 00             	movzx  eax,BYTE PTR [rax]
  4110f1:	0f b6 c8             	movzx  ecx,al
  4110f4:	48 8b 85 08 ff ff ff 	mov    rax,QWORD PTR [rbp-0xf8]
  4110fb:	89 ce                	mov    esi,ecx
  4110fd:	48 89 c7             	mov    rdi,rax
  411100:	e8 47 b8 ff ff       	call   40c94c <bsW>
  411105:	8b 45 cc             	mov    eax,DWORD PTR [rbp-0x34]
  411108:	48 98                	cdqe   
  41110a:	48 83 c0 0b          	add    rax,0xb
  41110e:	48 8d 14 00          	lea    rdx,[rax+rax*1]
  411112:	48 8b 45 88          	mov    rax,QWORD PTR [rbp-0x78]
  411116:	48 01 d0             	add    rax,rdx
  411119:	0f b7 00             	movzx  eax,WORD PTR [rax]
  41111c:	66 89 85 66 ff ff ff 	mov    WORD PTR [rbp-0x9a],ax
  411123:	0f b7 85 66 ff ff ff 	movzx  eax,WORD PTR [rbp-0x9a]
  41112a:	48 8d 14 85 00 00 00 	lea    rdx,[rax*4+0x0]
  411131:	00 
  411132:	48 8b 85 68 ff ff ff 	mov    rax,QWORD PTR [rbp-0x98]
  411139:	48 01 d0             	add    rax,rdx
  41113c:	8b 00                	mov    eax,DWORD PTR [rax]
  41113e:	89 c2                	mov    edx,eax
  411140:	0f b7 8d 66 ff ff ff 	movzx  ecx,WORD PTR [rbp-0x9a]
  411147:	48 8b 85 70 ff ff ff 	mov    rax,QWORD PTR [rbp-0x90]
  41114e:	48 01 c8             	add    rax,rcx
  411151:	0f b6 00             	movzx  eax,BYTE PTR [rax]
  411154:	0f b6 c8             	movzx  ecx,al
  411157:	48 8b 85 08 ff ff ff 	mov    rax,QWORD PTR [rbp-0xf8]
  41115e:	89 ce                	mov    esi,ecx
  411160:	48 89 c7             	mov    rdi,rax
  411163:	e8 e4 b7 ff ff       	call   40c94c <bsW>
  411168:	8b 45 cc             	mov    eax,DWORD PTR [rbp-0x34]
  41116b:	48 98                	cdqe   
  41116d:	48 83 c0 0c          	add    rax,0xc
  411171:	48 8d 14 00          	lea    rdx,[rax+rax*1]
  411175:	48 8b 45 88          	mov    rax,QWORD PTR [rbp-0x78]
  411179:	48 01 d0             	add    rax,rdx
  41117c:	0f b7 00             	movzx  eax,WORD PTR [rax]
  41117f:	66 89 85 66 ff ff ff 	mov    WORD PTR [rbp-0x9a],ax
  411186:	0f b7 85 66 ff ff ff 	movzx  eax,WORD PTR [rbp-0x9a]
  41118d:	48 8d 14 85 00 00 00 	lea    rdx,[rax*4+0x0]
  411194:	00 
  411195:	48 8b 85 68 ff ff ff 	mov    rax,QWORD PTR [rbp-0x98]
  41119c:	48 01 d0             	add    rax,rdx
  41119f:	8b 00                	mov    eax,DWORD PTR [rax]
  4111a1:	89 c2                	mov    edx,eax
  4111a3:	0f b7 8d 66 ff ff ff 	movzx  ecx,WORD PTR [rbp-0x9a]
  4111aa:	48 8b 85 70 ff ff ff 	mov    rax,QWORD PTR [rbp-0x90]
  4111b1:	48 01 c8             	add    rax,rcx
  4111b4:	0f b6 00             	movzx  eax,BYTE PTR [rax]
  4111b7:	0f b6 c8             	movzx  ecx,al
  4111ba:	48 8b 85 08 ff ff ff 	mov    rax,QWORD PTR [rbp-0xf8]
  4111c1:	89 ce                	mov    esi,ecx
  4111c3:	48 89 c7             	mov    rdi,rax
  4111c6:	e8 81 b7 ff ff       	call   40c94c <bsW>
  4111cb:	8b 45 cc             	mov    eax,DWORD PTR [rbp-0x34]
  4111ce:	48 98                	cdqe   
  4111d0:	48 83 c0 0d          	add    rax,0xd
  4111d4:	48 8d 14 00          	lea    rdx,[rax+rax*1]
  4111d8:	48 8b 45 88          	mov    rax,QWORD PTR [rbp-0x78]
  4111dc:	48 01 d0             	add    rax,rdx
  4111df:	0f b7 00             	movzx  eax,WORD PTR [rax]
  4111e2:	66 89 85 66 ff ff ff 	mov    WORD PTR [rbp-0x9a],ax
  4111e9:	0f b7 85 66 ff ff ff 	movzx  eax,WORD PTR [rbp-0x9a]
  4111f0:	48 8d 14 85 00 00 00 	lea    rdx,[rax*4+0x0]
  4111f7:	00 
  4111f8:	48 8b 85 68 ff ff ff 	mov    rax,QWORD PTR [rbp-0x98]
  4111ff:	48 01 d0             	add    rax,rdx
  411202:	8b 00                	mov    eax,DWORD PTR [rax]
  411204:	89 c2                	mov    edx,eax
  411206:	0f b7 8d 66 ff ff ff 	movzx  ecx,WORD PTR [rbp-0x9a]
  41120d:	48 8b 85 70 ff ff ff 	mov    rax,QWORD PTR [rbp-0x90]
  411214:	48 01 c8             	add    rax,rcx
  411217:	0f b6 00             	movzx  eax,BYTE PTR [rax]
  41121a:	0f b6 c8             	movzx  ecx,al
  41121d:	48 8b 85 08 ff ff ff 	mov    rax,QWORD PTR [rbp-0xf8]
  411224:	89 ce                	mov    esi,ecx
  411226:	48 89 c7             	mov    rdi,rax
  411229:	e8 1e b7 ff ff       	call   40c94c <bsW>
  41122e:	8b 45 cc             	mov    eax,DWORD PTR [rbp-0x34]
  411231:	48 98                	cdqe   
  411233:	48 83 c0 0e          	add    rax,0xe
  411237:	48 8d 14 00          	lea    rdx,[rax+rax*1]
  41123b:	48 8b 45 88          	mov    rax,QWORD PTR [rbp-0x78]
  41123f:	48 01 d0             	add    rax,rdx
  411242:	0f b7 00             	movzx  eax,WORD PTR [rax]
  411245:	66 89 85 66 ff ff ff 	mov    WORD PTR [rbp-0x9a],ax
  41124c:	0f b7 85 66 ff ff ff 	movzx  eax,WORD PTR [rbp-0x9a]
  411253:	48 8d 14 85 00 00 00 	lea    rdx,[rax*4+0x0]
  41125a:	00 
  41125b:	48 8b 85 68 ff ff ff 	mov    rax,QWORD PTR [rbp-0x98]
  411262:	48 01 d0             	add    rax,rdx
  411265:	8b 00                	mov    eax,DWORD PTR [rax]
  411267:	89 c2                	mov    edx,eax
  411269:	0f b7 8d 66 ff ff ff 	movzx  ecx,WORD PTR [rbp-0x9a]
  411270:	48 8b 85 70 ff ff ff 	mov    rax,QWORD PTR [rbp-0x90]
  411277:	48 01 c8             	add    rax,rcx
  41127a:	0f b6 00             	movzx  eax,BYTE PTR [rax]
  41127d:	0f b6 c8             	movzx  ecx,al
  411280:	48 8b 85 08 ff ff ff 	mov    rax,QWORD PTR [rbp-0xf8]
  411287:	89 ce                	mov    esi,ecx
  411289:	48 89 c7             	mov    rdi,rax
  41128c:	e8 bb b6 ff ff       	call   40c94c <bsW>
  411291:	8b 45 cc             	mov    eax,DWORD PTR [rbp-0x34]
  411294:	48 98                	cdqe   
  411296:	48 83 c0 0f          	add    rax,0xf
  41129a:	48 8d 14 00          	lea    rdx,[rax+rax*1]
  41129e:	48 8b 45 88          	mov    rax,QWORD PTR [rbp-0x78]
  4112a2:	48 01 d0             	add    rax,rdx
  4112a5:	0f b7 00             	movzx  eax,WORD PTR [rax]
  4112a8:	66 89 85 66 ff ff ff 	mov    WORD PTR [rbp-0x9a],ax
  4112af:	0f b7 85 66 ff ff ff 	movzx  eax,WORD PTR [rbp-0x9a]
  4112b6:	48 8d 14 85 00 00 00 	lea    rdx,[rax*4+0x0]
  4112bd:	00 
  4112be:	48 8b 85 68 ff ff ff 	mov    rax,QWORD PTR [rbp-0x98]
  4112c5:	48 01 d0             	add    rax,rdx
  4112c8:	8b 00                	mov    eax,DWORD PTR [rax]
  4112ca:	89 c2                	mov    edx,eax
  4112cc:	0f b7 8d 66 ff ff ff 	movzx  ecx,WORD PTR [rbp-0x9a]
  4112d3:	48 8b 85 70 ff ff ff 	mov    rax,QWORD PTR [rbp-0x90]
  4112da:	48 01 c8             	add    rax,rcx
  4112dd:	0f b6 00             	movzx  eax,BYTE PTR [rax]
  4112e0:	0f b6 c8             	movzx  ecx,al
  4112e3:	48 8b 85 08 ff ff ff 	mov    rax,QWORD PTR [rbp-0xf8]
  4112ea:	89 ce                	mov    esi,ecx
  4112ec:	48 89 c7             	mov    rdi,rax
  4112ef:	e8 58 b6 ff ff       	call   40c94c <bsW>
  4112f4:	8b 45 cc             	mov    eax,DWORD PTR [rbp-0x34]
  4112f7:	48 98                	cdqe   
  4112f9:	48 83 c0 10          	add    rax,0x10
  4112fd:	48 8d 14 00          	lea    rdx,[rax+rax*1]
  411301:	48 8b 45 88          	mov    rax,QWORD PTR [rbp-0x78]
  411305:	48 01 d0             	add    rax,rdx
  411308:	0f b7 00             	movzx  eax,WORD PTR [rax]
  41130b:	66 89 85 66 ff ff ff 	mov    WORD PTR [rbp-0x9a],ax
  411312:	0f b7 85 66 ff ff ff 	movzx  eax,WORD PTR [rbp-0x9a]
  411319:	48 8d 14 85 00 00 00 	lea    rdx,[rax*4+0x0]
  411320:	00 
  411321:	48 8b 85 68 ff ff ff 	mov    rax,QWORD PTR [rbp-0x98]
  411328:	48 01 d0             	add    rax,rdx
  41132b:	8b 00                	mov    eax,DWORD PTR [rax]
  41132d:	89 c2                	mov    edx,eax
  41132f:	0f b7 8d 66 ff ff ff 	movzx  ecx,WORD PTR [rbp-0x9a]
  411336:	48 8b 85 70 ff ff ff 	mov    rax,QWORD PTR [rbp-0x90]
  41133d:	48 01 c8             	add    rax,rcx
  411340:	0f b6 00             	movzx  eax,BYTE PTR [rax]
  411343:	0f b6 c8             	movzx  ecx,al
  411346:	48 8b 85 08 ff ff ff 	mov    rax,QWORD PTR [rbp-0xf8]
  41134d:	89 ce                	mov    esi,ecx
  41134f:	48 89 c7             	mov    rdi,rax
  411352:	e8 f5 b5 ff ff       	call   40c94c <bsW>
  411357:	8b 45 cc             	mov    eax,DWORD PTR [rbp-0x34]
  41135a:	48 98                	cdqe   
  41135c:	48 83 c0 11          	add    rax,0x11
  411360:	48 8d 14 00          	lea    rdx,[rax+rax*1]
  411364:	48 8b 45 88          	mov    rax,QWORD PTR [rbp-0x78]
  411368:	48 01 d0             	add    rax,rdx
  41136b:	0f b7 00             	movzx  eax,WORD PTR [rax]
  41136e:	66 89 85 66 ff ff ff 	mov    WORD PTR [rbp-0x9a],ax
  411375:	0f b7 85 66 ff ff ff 	movzx  eax,WORD PTR [rbp-0x9a]
  41137c:	48 8d 14 85 00 00 00 	lea    rdx,[rax*4+0x0]
  411383:	00 
  411384:	48 8b 85 68 ff ff ff 	mov    rax,QWORD PTR [rbp-0x98]
  41138b:	48 01 d0             	add    rax,rdx
  41138e:	8b 00                	mov    eax,DWORD PTR [rax]
  411390:	89 c2                	mov    edx,eax
  411392:	0f b7 8d 66 ff ff ff 	movzx  ecx,WORD PTR [rbp-0x9a]
  411399:	48 8b 85 70 ff ff ff 	mov    rax,QWORD PTR [rbp-0x90]
  4113a0:	48 01 c8             	add    rax,rcx
  4113a3:	0f b6 00             	movzx  eax,BYTE PTR [rax]
  4113a6:	0f b6 c8             	movzx  ecx,al
  4113a9:	48 8b 85 08 ff ff ff 	mov    rax,QWORD PTR [rbp-0xf8]
  4113b0:	89 ce                	mov    esi,ecx
  4113b2:	48 89 c7             	mov    rdi,rax
  4113b5:	e8 92 b5 ff ff       	call   40c94c <bsW>
  4113ba:	8b 45 cc             	mov    eax,DWORD PTR [rbp-0x34]
  4113bd:	48 98                	cdqe   
  4113bf:	48 83 c0 12          	add    rax,0x12
  4113c3:	48 8d 14 00          	lea    rdx,[rax+rax*1]
  4113c7:	48 8b 45 88          	mov    rax,QWORD PTR [rbp-0x78]
  4113cb:	48 01 d0             	add    rax,rdx
  4113ce:	0f b7 00             	movzx  eax,WORD PTR [rax]
  4113d1:	66 89 85 66 ff ff ff 	mov    WORD PTR [rbp-0x9a],ax
  4113d8:	0f b7 85 66 ff ff ff 	movzx  eax,WORD PTR [rbp-0x9a]
  4113df:	48 8d 14 85 00 00 00 	lea    rdx,[rax*4+0x0]
  4113e6:	00 
  4113e7:	48 8b 85 68 ff ff ff 	mov    rax,QWORD PTR [rbp-0x98]
  4113ee:	48 01 d0             	add    rax,rdx
  4113f1:	8b 00                	mov    eax,DWORD PTR [rax]
  4113f3:	89 c2                	mov    edx,eax
  4113f5:	0f b7 8d 66 ff ff ff 	movzx  ecx,WORD PTR [rbp-0x9a]
  4113fc:	48 8b 85 70 ff ff ff 	mov    rax,QWORD PTR [rbp-0x90]
  411403:	48 01 c8             	add    rax,rcx
  411406:	0f b6 00             	movzx  eax,BYTE PTR [rax]
  411409:	0f b6 c8             	movzx  ecx,al
  41140c:	48 8b 85 08 ff ff ff 	mov    rax,QWORD PTR [rbp-0xf8]
  411413:	89 ce                	mov    esi,ecx
  411415:	48 89 c7             	mov    rdi,rax
  411418:	e8 2f b5 ff ff       	call   40c94c <bsW>
  41141d:	8b 45 cc             	mov    eax,DWORD PTR [rbp-0x34]
  411420:	48 98                	cdqe   
  411422:	48 83 c0 13          	add    rax,0x13
  411426:	48 8d 14 00          	lea    rdx,[rax+rax*1]
  41142a:	48 8b 45 88          	mov    rax,QWORD PTR [rbp-0x78]
  41142e:	48 01 d0             	add    rax,rdx
  411431:	0f b7 00             	movzx  eax,WORD PTR [rax]
  411434:	66 89 85 66 ff ff ff 	mov    WORD PTR [rbp-0x9a],ax
  41143b:	0f b7 85 66 ff ff ff 	movzx  eax,WORD PTR [rbp-0x9a]
  411442:	48 8d 14 85 00 00 00 	lea    rdx,[rax*4+0x0]
  411449:	00 
  41144a:	48 8b 85 68 ff ff ff 	mov    rax,QWORD PTR [rbp-0x98]
  411451:	48 01 d0             	add    rax,rdx
  411454:	8b 00                	mov    eax,DWORD PTR [rax]
  411456:	89 c2                	mov    edx,eax
  411458:	0f b7 8d 66 ff ff ff 	movzx  ecx,WORD PTR [rbp-0x9a]
  41145f:	48 8b 85 70 ff ff ff 	mov    rax,QWORD PTR [rbp-0x90]
  411466:	48 01 c8             	add    rax,rcx
  411469:	0f b6 00             	movzx  eax,BYTE PTR [rax]
  41146c:	0f b6 c8             	movzx  ecx,al
  41146f:	48 8b 85 08 ff ff ff 	mov    rax,QWORD PTR [rbp-0xf8]
  411476:	89 ce                	mov    esi,ecx
  411478:	48 89 c7             	mov    rdi,rax
  41147b:	e8 cc b4 ff ff       	call   40c94c <bsW>
  411480:	8b 45 cc             	mov    eax,DWORD PTR [rbp-0x34]
  411483:	48 98                	cdqe   
  411485:	48 83 c0 14          	add    rax,0x14
  411489:	48 8d 14 00          	lea    rdx,[rax+rax*1]
  41148d:	48 8b 45 88          	mov    rax,QWORD PTR [rbp-0x78]
  411491:	48 01 d0             	add    rax,rdx
  411494:	0f b7 00             	movzx  eax,WORD PTR [rax]
  411497:	66 89 85 66 ff ff ff 	mov    WORD PTR [rbp-0x9a],ax
  41149e:	0f b7 85 66 ff ff ff 	movzx  eax,WORD PTR [rbp-0x9a]
  4114a5:	48 8d 14 85 00 00 00 	lea    rdx,[rax*4+0x0]
  4114ac:	00 
  4114ad:	48 8b 85 68 ff ff ff 	mov    rax,QWORD PTR [rbp-0x98]
  4114b4:	48 01 d0             	add    rax,rdx
  4114b7:	8b 00                	mov    eax,DWORD PTR [rax]
  4114b9:	89 c2                	mov    edx,eax
  4114bb:	0f b7 8d 66 ff ff ff 	movzx  ecx,WORD PTR [rbp-0x9a]
  4114c2:	48 8b 85 70 ff ff ff 	mov    rax,QWORD PTR [rbp-0x90]
  4114c9:	48 01 c8             	add    rax,rcx
  4114cc:	0f b6 00             	movzx  eax,BYTE PTR [rax]
  4114cf:	0f b6 c8             	movzx  ecx,al
  4114d2:	48 8b 85 08 ff ff ff 	mov    rax,QWORD PTR [rbp-0xf8]
  4114d9:	89 ce                	mov    esi,ecx
  4114db:	48 89 c7             	mov    rdi,rax
  4114de:	e8 69 b4 ff ff       	call   40c94c <bsW>
  4114e3:	8b 45 cc             	mov    eax,DWORD PTR [rbp-0x34]
  4114e6:	48 98                	cdqe   
  4114e8:	48 83 c0 15          	add    rax,0x15
  4114ec:	48 8d 14 00          	lea    rdx,[rax+rax*1]
  4114f0:	48 8b 45 88          	mov    rax,QWORD PTR [rbp-0x78]
  4114f4:	48 01 d0             	add    rax,rdx
  4114f7:	0f b7 00             	movzx  eax,WORD PTR [rax]
  4114fa:	66 89 85 66 ff ff ff 	mov    WORD PTR [rbp-0x9a],ax
  411501:	0f b7 85 66 ff ff ff 	movzx  eax,WORD PTR [rbp-0x9a]
  411508:	48 8d 14 85 00 00 00 	lea    rdx,[rax*4+0x0]
  41150f:	00 
  411510:	48 8b 85 68 ff ff ff 	mov    rax,QWORD PTR [rbp-0x98]
  411517:	48 01 d0             	add    rax,rdx
  41151a:	8b 00                	mov    eax,DWORD PTR [rax]
  41151c:	89 c2                	mov    edx,eax
  41151e:	0f b7 8d 66 ff ff ff 	movzx  ecx,WORD PTR [rbp-0x9a]
  411525:	48 8b 85 70 ff ff ff 	mov    rax,QWORD PTR [rbp-0x90]
  41152c:	48 01 c8             	add    rax,rcx
  41152f:	0f b6 00             	movzx  eax,BYTE PTR [rax]
  411532:	0f b6 c8             	movzx  ecx,al
  411535:	48 8b 85 08 ff ff ff 	mov    rax,QWORD PTR [rbp-0xf8]
  41153c:	89 ce                	mov    esi,ecx
  41153e:	48 89 c7             	mov    rdi,rax
  411541:	e8 06 b4 ff ff       	call   40c94c <bsW>
  411546:	8b 45 cc             	mov    eax,DWORD PTR [rbp-0x34]
  411549:	48 98                	cdqe   
  41154b:	48 83 c0 16          	add    rax,0x16
  41154f:	48 8d 14 00          	lea    rdx,[rax+rax*1]
  411553:	48 8b 45 88          	mov    rax,QWORD PTR [rbp-0x78]
  411557:	48 01 d0             	add    rax,rdx
  41155a:	0f b7 00             	movzx  eax,WORD PTR [rax]
  41155d:	66 89 85 66 ff ff ff 	mov    WORD PTR [rbp-0x9a],ax
  411564:	0f b7 85 66 ff ff ff 	movzx  eax,WORD PTR [rbp-0x9a]
  41156b:	48 8d 14 85 00 00 00 	lea    rdx,[rax*4+0x0]
  411572:	00 
  411573:	48 8b 85 68 ff ff ff 	mov    rax,QWORD PTR [rbp-0x98]
  41157a:	48 01 d0             	add    rax,rdx
  41157d:	8b 00                	mov    eax,DWORD PTR [rax]
  41157f:	89 c2                	mov    edx,eax
  411581:	0f b7 8d 66 ff ff ff 	movzx  ecx,WORD PTR [rbp-0x9a]
  411588:	48 8b 85 70 ff ff ff 	mov    rax,QWORD PTR [rbp-0x90]
  41158f:	48 01 c8             	add    rax,rcx
  411592:	0f b6 00             	movzx  eax,BYTE PTR [rax]
  411595:	0f b6 c8             	movzx  ecx,al
  411598:	48 8b 85 08 ff ff ff 	mov    rax,QWORD PTR [rbp-0xf8]
  41159f:	89 ce                	mov    esi,ecx
  4115a1:	48 89 c7             	mov    rdi,rax
  4115a4:	e8 a3 b3 ff ff       	call   40c94c <bsW>
  4115a9:	8b 45 cc             	mov    eax,DWORD PTR [rbp-0x34]
  4115ac:	48 98                	cdqe   
  4115ae:	48 83 c0 17          	add    rax,0x17
  4115b2:	48 8d 14 00          	lea    rdx,[rax+rax*1]
  4115b6:	48 8b 45 88          	mov    rax,QWORD PTR [rbp-0x78]
  4115ba:	48 01 d0             	add    rax,rdx
  4115bd:	0f b7 00             	movzx  eax,WORD PTR [rax]
  4115c0:	66 89 85 66 ff ff ff 	mov    WORD PTR [rbp-0x9a],ax
  4115c7:	0f b7 85 66 ff ff ff 	movzx  eax,WORD PTR [rbp-0x9a]
  4115ce:	48 8d 14 85 00 00 00 	lea    rdx,[rax*4+0x0]
  4115d5:	00 
  4115d6:	48 8b 85 68 ff ff ff 	mov    rax,QWORD PTR [rbp-0x98]
  4115dd:	48 01 d0             	add    rax,rdx
  4115e0:	8b 00                	mov    eax,DWORD PTR [rax]
  4115e2:	89 c2                	mov    edx,eax
  4115e4:	0f b7 8d 66 ff ff ff 	movzx  ecx,WORD PTR [rbp-0x9a]
  4115eb:	48 8b 85 70 ff ff ff 	mov    rax,QWORD PTR [rbp-0x90]
  4115f2:	48 01 c8             	add    rax,rcx
  4115f5:	0f b6 00             	movzx  eax,BYTE PTR [rax]
  4115f8:	0f b6 c8             	movzx  ecx,al
  4115fb:	48 8b 85 08 ff ff ff 	mov    rax,QWORD PTR [rbp-0xf8]
  411602:	89 ce                	mov    esi,ecx
  411604:	48 89 c7             	mov    rdi,rax
  411607:	e8 40 b3 ff ff       	call   40c94c <bsW>
  41160c:	8b 45 cc             	mov    eax,DWORD PTR [rbp-0x34]
  41160f:	48 98                	cdqe   
  411611:	48 83 c0 18          	add    rax,0x18
  411615:	48 8d 14 00          	lea    rdx,[rax+rax*1]
  411619:	48 8b 45 88          	mov    rax,QWORD PTR [rbp-0x78]
  41161d:	48 01 d0             	add    rax,rdx
  411620:	0f b7 00             	movzx  eax,WORD PTR [rax]
  411623:	66 89 85 66 ff ff ff 	mov    WORD PTR [rbp-0x9a],ax
  41162a:	0f b7 85 66 ff ff ff 	movzx  eax,WORD PTR [rbp-0x9a]
  411631:	48 8d 14 85 00 00 00 	lea    rdx,[rax*4+0x0]
  411638:	00 
  411639:	48 8b 85 68 ff ff ff 	mov    rax,QWORD PTR [rbp-0x98]
  411640:	48 01 d0             	add    rax,rdx
  411643:	8b 00                	mov    eax,DWORD PTR [rax]
  411645:	89 c2                	mov    edx,eax
  411647:	0f b7 8d 66 ff ff ff 	movzx  ecx,WORD PTR [rbp-0x9a]
  41164e:	48 8b 85 70 ff ff ff 	mov    rax,QWORD PTR [rbp-0x90]
  411655:	48 01 c8             	add    rax,rcx
  411658:	0f b6 00             	movzx  eax,BYTE PTR [rax]
  41165b:	0f b6 c8             	movzx  ecx,al
  41165e:	48 8b 85 08 ff ff ff 	mov    rax,QWORD PTR [rbp-0xf8]
  411665:	89 ce                	mov    esi,ecx
  411667:	48 89 c7             	mov    rdi,rax
  41166a:	e8 dd b2 ff ff       	call   40c94c <bsW>
  41166f:	8b 45 cc             	mov    eax,DWORD PTR [rbp-0x34]
  411672:	48 98                	cdqe   
  411674:	48 83 c0 19          	add    rax,0x19
  411678:	48 8d 14 00          	lea    rdx,[rax+rax*1]
  41167c:	48 8b 45 88          	mov    rax,QWORD PTR [rbp-0x78]
  411680:	48 01 d0             	add    rax,rdx
  411683:	0f b7 00             	movzx  eax,WORD PTR [rax]
  411686:	66 89 85 66 ff ff ff 	mov    WORD PTR [rbp-0x9a],ax
  41168d:	0f b7 85 66 ff ff ff 	movzx  eax,WORD PTR [rbp-0x9a]
  411694:	48 8d 14 85 00 00 00 	lea    rdx,[rax*4+0x0]
  41169b:	00 
  41169c:	48 8b 85 68 ff ff ff 	mov    rax,QWORD PTR [rbp-0x98]
  4116a3:	48 01 d0             	add    rax,rdx
  4116a6:	8b 00                	mov    eax,DWORD PTR [rax]
  4116a8:	89 c2                	mov    edx,eax
  4116aa:	0f b7 8d 66 ff ff ff 	movzx  ecx,WORD PTR [rbp-0x9a]
  4116b1:	48 8b 85 70 ff ff ff 	mov    rax,QWORD PTR [rbp-0x90]
  4116b8:	48 01 c8             	add    rax,rcx
  4116bb:	0f b6 00             	movzx  eax,BYTE PTR [rax]
  4116be:	0f b6 c8             	movzx  ecx,al
  4116c1:	48 8b 85 08 ff ff ff 	mov    rax,QWORD PTR [rbp-0xf8]
  4116c8:	89 ce                	mov    esi,ecx
  4116ca:	48 89 c7             	mov    rdi,rax
  4116cd:	e8 7a b2 ff ff       	call   40c94c <bsW>
  4116d2:	8b 45 cc             	mov    eax,DWORD PTR [rbp-0x34]
  4116d5:	48 98                	cdqe   
  4116d7:	48 83 c0 1a          	add    rax,0x1a
  4116db:	48 8d 14 00          	lea    rdx,[rax+rax*1]
  4116df:	48 8b 45 88          	mov    rax,QWORD PTR [rbp-0x78]
  4116e3:	48 01 d0             	add    rax,rdx
  4116e6:	0f b7 00             	movzx  eax,WORD PTR [rax]
  4116e9:	66 89 85 66 ff ff ff 	mov    WORD PTR [rbp-0x9a],ax
  4116f0:	0f b7 85 66 ff ff ff 	movzx  eax,WORD PTR [rbp-0x9a]
  4116f7:	48 8d 14 85 00 00 00 	lea    rdx,[rax*4+0x0]
  4116fe:	00 
  4116ff:	48 8b 85 68 ff ff ff 	mov    rax,QWORD PTR [rbp-0x98]
  411706:	48 01 d0             	add    rax,rdx
  411709:	8b 00                	mov    eax,DWORD PTR [rax]
  41170b:	89 c2                	mov    edx,eax
  41170d:	0f b7 8d 66 ff ff ff 	movzx  ecx,WORD PTR [rbp-0x9a]
  411714:	48 8b 85 70 ff ff ff 	mov    rax,QWORD PTR [rbp-0x90]
  41171b:	48 01 c8             	add    rax,rcx
  41171e:	0f b6 00             	movzx  eax,BYTE PTR [rax]
  411721:	0f b6 c8             	movzx  ecx,al
  411724:	48 8b 85 08 ff ff ff 	mov    rax,QWORD PTR [rbp-0xf8]
  41172b:	89 ce                	mov    esi,ecx
  41172d:	48 89 c7             	mov    rdi,rax
  411730:	e8 17 b2 ff ff       	call   40c94c <bsW>
  411735:	8b 45 cc             	mov    eax,DWORD PTR [rbp-0x34]
  411738:	48 98                	cdqe   
  41173a:	48 83 c0 1b          	add    rax,0x1b
  41173e:	48 8d 14 00          	lea    rdx,[rax+rax*1]
  411742:	48 8b 45 88          	mov    rax,QWORD PTR [rbp-0x78]
  411746:	48 01 d0             	add    rax,rdx
  411749:	0f b7 00             	movzx  eax,WORD PTR [rax]
  41174c:	66 89 85 66 ff ff ff 	mov    WORD PTR [rbp-0x9a],ax
  411753:	0f b7 85 66 ff ff ff 	movzx  eax,WORD PTR [rbp-0x9a]
  41175a:	48 8d 14 85 00 00 00 	lea    rdx,[rax*4+0x0]
  411761:	00 
  411762:	48 8b 85 68 ff ff ff 	mov    rax,QWORD PTR [rbp-0x98]
  411769:	48 01 d0             	add    rax,rdx
  41176c:	8b 00                	mov    eax,DWORD PTR [rax]
  41176e:	89 c2                	mov    edx,eax
  411770:	0f b7 8d 66 ff ff ff 	movzx  ecx,WORD PTR [rbp-0x9a]
  411777:	48 8b 85 70 ff ff ff 	mov    rax,QWORD PTR [rbp-0x90]
  41177e:	48 01 c8             	add    rax,rcx
  411781:	0f b6 00             	movzx  eax,BYTE PTR [rax]
  411784:	0f b6 c8             	movzx  ecx,al
  411787:	48 8b 85 08 ff ff ff 	mov    rax,QWORD PTR [rbp-0xf8]
  41178e:	89 ce                	mov    esi,ecx
  411790:	48 89 c7             	mov    rdi,rax
  411793:	e8 b4 b1 ff ff       	call   40c94c <bsW>
  411798:	8b 45 cc             	mov    eax,DWORD PTR [rbp-0x34]
  41179b:	48 98                	cdqe   
  41179d:	48 83 c0 1c          	add    rax,0x1c
  4117a1:	48 8d 14 00          	lea    rdx,[rax+rax*1]
  4117a5:	48 8b 45 88          	mov    rax,QWORD PTR [rbp-0x78]
  4117a9:	48 01 d0             	add    rax,rdx
  4117ac:	0f b7 00             	movzx  eax,WORD PTR [rax]
  4117af:	66 89 85 66 ff ff ff 	mov    WORD PTR [rbp-0x9a],ax
  4117b6:	0f b7 85 66 ff ff ff 	movzx  eax,WORD PTR [rbp-0x9a]
  4117bd:	48 8d 14 85 00 00 00 	lea    rdx,[rax*4+0x0]
  4117c4:	00 
  4117c5:	48 8b 85 68 ff ff ff 	mov    rax,QWORD PTR [rbp-0x98]
  4117cc:	48 01 d0             	add    rax,rdx
  4117cf:	8b 00                	mov    eax,DWORD PTR [rax]
  4117d1:	89 c2                	mov    edx,eax
  4117d3:	0f b7 8d 66 ff ff ff 	movzx  ecx,WORD PTR [rbp-0x9a]
  4117da:	48 8b 85 70 ff ff ff 	mov    rax,QWORD PTR [rbp-0x90]
  4117e1:	48 01 c8             	add    rax,rcx
  4117e4:	0f b6 00             	movzx  eax,BYTE PTR [rax]
  4117e7:	0f b6 c8             	movzx  ecx,al
  4117ea:	48 8b 85 08 ff ff ff 	mov    rax,QWORD PTR [rbp-0xf8]
  4117f1:	89 ce                	mov    esi,ecx
  4117f3:	48 89 c7             	mov    rdi,rax
  4117f6:	e8 51 b1 ff ff       	call   40c94c <bsW>
  4117fb:	8b 45 cc             	mov    eax,DWORD PTR [rbp-0x34]
  4117fe:	48 98                	cdqe   
  411800:	48 83 c0 1d          	add    rax,0x1d
  411804:	48 8d 14 00          	lea    rdx,[rax+rax*1]
  411808:	48 8b 45 88          	mov    rax,QWORD PTR [rbp-0x78]
  41180c:	48 01 d0             	add    rax,rdx
  41180f:	0f b7 00             	movzx  eax,WORD PTR [rax]
  411812:	66 89 85 66 ff ff ff 	mov    WORD PTR [rbp-0x9a],ax
  411819:	0f b7 85 66 ff ff ff 	movzx  eax,WORD PTR [rbp-0x9a]
  411820:	48 8d 14 85 00 00 00 	lea    rdx,[rax*4+0x0]
  411827:	00 
  411828:	48 8b 85 68 ff ff ff 	mov    rax,QWORD PTR [rbp-0x98]
  41182f:	48 01 d0             	add    rax,rdx
  411832:	8b 00                	mov    eax,DWORD PTR [rax]
  411834:	89 c2                	mov    edx,eax
  411836:	0f b7 8d 66 ff ff ff 	movzx  ecx,WORD PTR [rbp-0x9a]
  41183d:	48 8b 85 70 ff ff ff 	mov    rax,QWORD PTR [rbp-0x90]
  411844:	48 01 c8             	add    rax,rcx
  411847:	0f b6 00             	movzx  eax,BYTE PTR [rax]
  41184a:	0f b6 c8             	movzx  ecx,al
  41184d:	48 8b 85 08 ff ff ff 	mov    rax,QWORD PTR [rbp-0xf8]
  411854:	89 ce                	mov    esi,ecx
  411856:	48 89 c7             	mov    rdi,rax
  411859:	e8 ee b0 ff ff       	call   40c94c <bsW>
  41185e:	8b 45 cc             	mov    eax,DWORD PTR [rbp-0x34]
  411861:	48 98                	cdqe   
  411863:	48 83 c0 1e          	add    rax,0x1e
  411867:	48 8d 14 00          	lea    rdx,[rax+rax*1]
  41186b:	48 8b 45 88          	mov    rax,QWORD PTR [rbp-0x78]
  41186f:	48 01 d0             	add    rax,rdx
  411872:	0f b7 00             	movzx  eax,WORD PTR [rax]
  411875:	66 89 85 66 ff ff ff 	mov    WORD PTR [rbp-0x9a],ax
  41187c:	0f b7 85 66 ff ff ff 	movzx  eax,WORD PTR [rbp-0x9a]
  411883:	48 8d 14 85 00 00 00 	lea    rdx,[rax*4+0x0]
  41188a:	00 
  41188b:	48 8b 85 68 ff ff ff 	mov    rax,QWORD PTR [rbp-0x98]
  411892:	48 01 d0             	add    rax,rdx
  411895:	8b 00                	mov    eax,DWORD PTR [rax]
  411897:	89 c2                	mov    edx,eax
  411899:	0f b7 8d 66 ff ff ff 	movzx  ecx,WORD PTR [rbp-0x9a]
  4118a0:	48 8b 85 70 ff ff ff 	mov    rax,QWORD PTR [rbp-0x90]
  4118a7:	48 01 c8             	add    rax,rcx
  4118aa:	0f b6 00             	movzx  eax,BYTE PTR [rax]
  4118ad:	0f b6 c8             	movzx  ecx,al
  4118b0:	48 8b 85 08 ff ff ff 	mov    rax,QWORD PTR [rbp-0xf8]
  4118b7:	89 ce                	mov    esi,ecx
  4118b9:	48 89 c7             	mov    rdi,rax
  4118bc:	e8 8b b0 ff ff       	call   40c94c <bsW>
  4118c1:	8b 45 cc             	mov    eax,DWORD PTR [rbp-0x34]
  4118c4:	48 98                	cdqe   
  4118c6:	48 83 c0 1f          	add    rax,0x1f
  4118ca:	48 8d 14 00          	lea    rdx,[rax+rax*1]
  4118ce:	48 8b 45 88          	mov    rax,QWORD PTR [rbp-0x78]
  4118d2:	48 01 d0             	add    rax,rdx
  4118d5:	0f b7 00             	movzx  eax,WORD PTR [rax]
  4118d8:	66 89 85 66 ff ff ff 	mov    WORD PTR [rbp-0x9a],ax
  4118df:	0f b7 85 66 ff ff ff 	movzx  eax,WORD PTR [rbp-0x9a]
  4118e6:	48 8d 14 85 00 00 00 	lea    rdx,[rax*4+0x0]
  4118ed:	00 
  4118ee:	48 8b 85 68 ff ff ff 	mov    rax,QWORD PTR [rbp-0x98]
  4118f5:	48 01 d0             	add    rax,rdx
  4118f8:	8b 00                	mov    eax,DWORD PTR [rax]
  4118fa:	89 c2                	mov    edx,eax
  4118fc:	0f b7 8d 66 ff ff ff 	movzx  ecx,WORD PTR [rbp-0x9a]
  411903:	48 8b 85 70 ff ff ff 	mov    rax,QWORD PTR [rbp-0x90]
  41190a:	48 01 c8             	add    rax,rcx
  41190d:	0f b6 00             	movzx  eax,BYTE PTR [rax]
  411910:	0f b6 c8             	movzx  ecx,al
  411913:	48 8b 85 08 ff ff ff 	mov    rax,QWORD PTR [rbp-0xf8]
  41191a:	89 ce                	mov    esi,ecx
  41191c:	48 89 c7             	mov    rdi,rax
  41191f:	e8 28 b0 ff ff       	call   40c94c <bsW>
  411924:	8b 45 cc             	mov    eax,DWORD PTR [rbp-0x34]
  411927:	48 98                	cdqe   
  411929:	48 83 c0 20          	add    rax,0x20
  41192d:	48 8d 14 00          	lea    rdx,[rax+rax*1]
  411931:	48 8b 45 88          	mov    rax,QWORD PTR [rbp-0x78]
  411935:	48 01 d0             	add    rax,rdx
  411938:	0f b7 00             	movzx  eax,WORD PTR [rax]
  41193b:	66 89 85 66 ff ff ff 	mov    WORD PTR [rbp-0x9a],ax
  411942:	0f b7 85 66 ff ff ff 	movzx  eax,WORD PTR [rbp-0x9a]
  411949:	48 8d 14 85 00 00 00 	lea    rdx,[rax*4+0x0]
  411950:	00 
  411951:	48 8b 85 68 ff ff ff 	mov    rax,QWORD PTR [rbp-0x98]
  411958:	48 01 d0             	add    rax,rdx
  41195b:	8b 00                	mov    eax,DWORD PTR [rax]
  41195d:	89 c2                	mov    edx,eax
  41195f:	0f b7 8d 66 ff ff ff 	movzx  ecx,WORD PTR [rbp-0x9a]
  411966:	48 8b 85 70 ff ff ff 	mov    rax,QWORD PTR [rbp-0x90]
  41196d:	48 01 c8             	add    rax,rcx
  411970:	0f b6 00             	movzx  eax,BYTE PTR [rax]
  411973:	0f b6 c8             	movzx  ecx,al
  411976:	48 8b 85 08 ff ff ff 	mov    rax,QWORD PTR [rbp-0xf8]
  41197d:	89 ce                	mov    esi,ecx
  41197f:	48 89 c7             	mov    rdi,rax
  411982:	e8 c5 af ff ff       	call   40c94c <bsW>
  411987:	8b 45 cc             	mov    eax,DWORD PTR [rbp-0x34]
  41198a:	48 98                	cdqe   
  41198c:	48 83 c0 21          	add    rax,0x21
  411990:	48 8d 14 00          	lea    rdx,[rax+rax*1]
  411994:	48 8b 45 88          	mov    rax,QWORD PTR [rbp-0x78]
  411998:	48 01 d0             	add    rax,rdx
  41199b:	0f b7 00             	movzx  eax,WORD PTR [rax]
  41199e:	66 89 85 66 ff ff ff 	mov    WORD PTR [rbp-0x9a],ax
  4119a5:	0f b7 85 66 ff ff ff 	movzx  eax,WORD PTR [rbp-0x9a]
  4119ac:	48 8d 14 85 00 00 00 	lea    rdx,[rax*4+0x0]
  4119b3:	00 
  4119b4:	48 8b 85 68 ff ff ff 	mov    rax,QWORD PTR [rbp-0x98]
  4119bb:	48 01 d0             	add    rax,rdx
  4119be:	8b 00                	mov    eax,DWORD PTR [rax]
  4119c0:	89 c2                	mov    edx,eax
  4119c2:	0f b7 8d 66 ff ff ff 	movzx  ecx,WORD PTR [rbp-0x9a]
  4119c9:	48 8b 85 70 ff ff ff 	mov    rax,QWORD PTR [rbp-0x90]
  4119d0:	48 01 c8             	add    rax,rcx
  4119d3:	0f b6 00             	movzx  eax,BYTE PTR [rax]
  4119d6:	0f b6 c8             	movzx  ecx,al
  4119d9:	48 8b 85 08 ff ff ff 	mov    rax,QWORD PTR [rbp-0xf8]
  4119e0:	89 ce                	mov    esi,ecx
  4119e2:	48 89 c7             	mov    rdi,rax
  4119e5:	e8 62 af ff ff       	call   40c94c <bsW>
  4119ea:	8b 45 cc             	mov    eax,DWORD PTR [rbp-0x34]
  4119ed:	48 98                	cdqe   
  4119ef:	48 83 c0 22          	add    rax,0x22
  4119f3:	48 8d 14 00          	lea    rdx,[rax+rax*1]
  4119f7:	48 8b 45 88          	mov    rax,QWORD PTR [rbp-0x78]
  4119fb:	48 01 d0             	add    rax,rdx
  4119fe:	0f b7 00             	movzx  eax,WORD PTR [rax]
  411a01:	66 89 85 66 ff ff ff 	mov    WORD PTR [rbp-0x9a],ax
  411a08:	0f b7 85 66 ff ff ff 	movzx  eax,WORD PTR [rbp-0x9a]
  411a0f:	48 8d 14 85 00 00 00 	lea    rdx,[rax*4+0x0]
  411a16:	00 
  411a17:	48 8b 85 68 ff ff ff 	mov    rax,QWORD PTR [rbp-0x98]
  411a1e:	48 01 d0             	add    rax,rdx
  411a21:	8b 00                	mov    eax,DWORD PTR [rax]
  411a23:	89 c2                	mov    edx,eax
  411a25:	0f b7 8d 66 ff ff ff 	movzx  ecx,WORD PTR [rbp-0x9a]
  411a2c:	48 8b 85 70 ff ff ff 	mov    rax,QWORD PTR [rbp-0x90]
  411a33:	48 01 c8             	add    rax,rcx
  411a36:	0f b6 00             	movzx  eax,BYTE PTR [rax]
  411a39:	0f b6 c8             	movzx  ecx,al
  411a3c:	48 8b 85 08 ff ff ff 	mov    rax,QWORD PTR [rbp-0xf8]
  411a43:	89 ce                	mov    esi,ecx
  411a45:	48 89 c7             	mov    rdi,rax
  411a48:	e8 ff ae ff ff       	call   40c94c <bsW>
  411a4d:	8b 45 cc             	mov    eax,DWORD PTR [rbp-0x34]
  411a50:	48 98                	cdqe   
  411a52:	48 83 c0 23          	add    rax,0x23
  411a56:	48 8d 14 00          	lea    rdx,[rax+rax*1]
  411a5a:	48 8b 45 88          	mov    rax,QWORD PTR [rbp-0x78]
  411a5e:	48 01 d0             	add    rax,rdx
  411a61:	0f b7 00             	movzx  eax,WORD PTR [rax]
  411a64:	66 89 85 66 ff ff ff 	mov    WORD PTR [rbp-0x9a],ax
  411a6b:	0f b7 85 66 ff ff ff 	movzx  eax,WORD PTR [rbp-0x9a]
  411a72:	48 8d 14 85 00 00 00 	lea    rdx,[rax*4+0x0]
  411a79:	00 
  411a7a:	48 8b 85 68 ff ff ff 	mov    rax,QWORD PTR [rbp-0x98]
  411a81:	48 01 d0             	add    rax,rdx
  411a84:	8b 00                	mov    eax,DWORD PTR [rax]
  411a86:	89 c2                	mov    edx,eax
  411a88:	0f b7 8d 66 ff ff ff 	movzx  ecx,WORD PTR [rbp-0x9a]
  411a8f:	48 8b 85 70 ff ff ff 	mov    rax,QWORD PTR [rbp-0x90]
  411a96:	48 01 c8             	add    rax,rcx
  411a99:	0f b6 00             	movzx  eax,BYTE PTR [rax]
  411a9c:	0f b6 c8             	movzx  ecx,al
  411a9f:	48 8b 85 08 ff ff ff 	mov    rax,QWORD PTR [rbp-0xf8]
  411aa6:	89 ce                	mov    esi,ecx
  411aa8:	48 89 c7             	mov    rdi,rax
  411aab:	e8 9c ae ff ff       	call   40c94c <bsW>
  411ab0:	8b 45 cc             	mov    eax,DWORD PTR [rbp-0x34]
  411ab3:	48 98                	cdqe   
  411ab5:	48 83 c0 24          	add    rax,0x24
  411ab9:	48 8d 14 00          	lea    rdx,[rax+rax*1]
  411abd:	48 8b 45 88          	mov    rax,QWORD PTR [rbp-0x78]
  411ac1:	48 01 d0             	add    rax,rdx
  411ac4:	0f b7 00             	movzx  eax,WORD PTR [rax]
  411ac7:	66 89 85 66 ff ff ff 	mov    WORD PTR [rbp-0x9a],ax
  411ace:	0f b7 85 66 ff ff ff 	movzx  eax,WORD PTR [rbp-0x9a]
  411ad5:	48 8d 14 85 00 00 00 	lea    rdx,[rax*4+0x0]
  411adc:	00 
  411add:	48 8b 85 68 ff ff ff 	mov    rax,QWORD PTR [rbp-0x98]
  411ae4:	48 01 d0             	add    rax,rdx
  411ae7:	8b 00                	mov    eax,DWORD PTR [rax]
  411ae9:	89 c2                	mov    edx,eax
  411aeb:	0f b7 8d 66 ff ff ff 	movzx  ecx,WORD PTR [rbp-0x9a]
  411af2:	48 8b 85 70 ff ff ff 	mov    rax,QWORD PTR [rbp-0x90]
  411af9:	48 01 c8             	add    rax,rcx
  411afc:	0f b6 00             	movzx  eax,BYTE PTR [rax]
  411aff:	0f b6 c8             	movzx  ecx,al
  411b02:	48 8b 85 08 ff ff ff 	mov    rax,QWORD PTR [rbp-0xf8]
  411b09:	89 ce                	mov    esi,ecx
  411b0b:	48 89 c7             	mov    rdi,rax
  411b0e:	e8 39 ae ff ff       	call   40c94c <bsW>
  411b13:	8b 45 cc             	mov    eax,DWORD PTR [rbp-0x34]
  411b16:	48 98                	cdqe   
  411b18:	48 83 c0 25          	add    rax,0x25
  411b1c:	48 8d 14 00          	lea    rdx,[rax+rax*1]
  411b20:	48 8b 45 88          	mov    rax,QWORD PTR [rbp-0x78]
  411b24:	48 01 d0             	add    rax,rdx
  411b27:	0f b7 00             	movzx  eax,WORD PTR [rax]
  411b2a:	66 89 85 66 ff ff ff 	mov    WORD PTR [rbp-0x9a],ax
  411b31:	0f b7 85 66 ff ff ff 	movzx  eax,WORD PTR [rbp-0x9a]
  411b38:	48 8d 14 85 00 00 00 	lea    rdx,[rax*4+0x0]
  411b3f:	00 
  411b40:	48 8b 85 68 ff ff ff 	mov    rax,QWORD PTR [rbp-0x98]
  411b47:	48 01 d0             	add    rax,rdx
  411b4a:	8b 00                	mov    eax,DWORD PTR [rax]
  411b4c:	89 c2                	mov    edx,eax
  411b4e:	0f b7 8d 66 ff ff ff 	movzx  ecx,WORD PTR [rbp-0x9a]
  411b55:	48 8b 85 70 ff ff ff 	mov    rax,QWORD PTR [rbp-0x90]
  411b5c:	48 01 c8             	add    rax,rcx
  411b5f:	0f b6 00             	movzx  eax,BYTE PTR [rax]
  411b62:	0f b6 c8             	movzx  ecx,al
  411b65:	48 8b 85 08 ff ff ff 	mov    rax,QWORD PTR [rbp-0xf8]
  411b6c:	89 ce                	mov    esi,ecx
  411b6e:	48 89 c7             	mov    rdi,rax
  411b71:	e8 d6 ad ff ff       	call   40c94c <bsW>
  411b76:	8b 45 cc             	mov    eax,DWORD PTR [rbp-0x34]
  411b79:	48 98                	cdqe   
  411b7b:	48 83 c0 26          	add    rax,0x26
  411b7f:	48 8d 14 00          	lea    rdx,[rax+rax*1]
  411b83:	48 8b 45 88          	mov    rax,QWORD PTR [rbp-0x78]
  411b87:	48 01 d0             	add    rax,rdx
  411b8a:	0f b7 00             	movzx  eax,WORD PTR [rax]
  411b8d:	66 89 85 66 ff ff ff 	mov    WORD PTR [rbp-0x9a],ax
  411b94:	0f b7 85 66 ff ff ff 	movzx  eax,WORD PTR [rbp-0x9a]
  411b9b:	48 8d 14 85 00 00 00 	lea    rdx,[rax*4+0x0]
  411ba2:	00 
  411ba3:	48 8b 85 68 ff ff ff 	mov    rax,QWORD PTR [rbp-0x98]
  411baa:	48 01 d0             	add    rax,rdx
  411bad:	8b 00                	mov    eax,DWORD PTR [rax]
  411baf:	89 c2                	mov    edx,eax
  411bb1:	0f b7 8d 66 ff ff ff 	movzx  ecx,WORD PTR [rbp-0x9a]
  411bb8:	48 8b 85 70 ff ff ff 	mov    rax,QWORD PTR [rbp-0x90]
  411bbf:	48 01 c8             	add    rax,rcx
  411bc2:	0f b6 00             	movzx  eax,BYTE PTR [rax]
  411bc5:	0f b6 c8             	movzx  ecx,al
  411bc8:	48 8b 85 08 ff ff ff 	mov    rax,QWORD PTR [rbp-0xf8]
  411bcf:	89 ce                	mov    esi,ecx
  411bd1:	48 89 c7             	mov    rdi,rax
  411bd4:	e8 73 ad ff ff       	call   40c94c <bsW>
  411bd9:	8b 45 cc             	mov    eax,DWORD PTR [rbp-0x34]
  411bdc:	48 98                	cdqe   
  411bde:	48 83 c0 27          	add    rax,0x27
  411be2:	48 8d 14 00          	lea    rdx,[rax+rax*1]
  411be6:	48 8b 45 88          	mov    rax,QWORD PTR [rbp-0x78]
  411bea:	48 01 d0             	add    rax,rdx
  411bed:	0f b7 00             	movzx  eax,WORD PTR [rax]
  411bf0:	66 89 85 66 ff ff ff 	mov    WORD PTR [rbp-0x9a],ax
  411bf7:	0f b7 85 66 ff ff ff 	movzx  eax,WORD PTR [rbp-0x9a]
  411bfe:	48 8d 14 85 00 00 00 	lea    rdx,[rax*4+0x0]
  411c05:	00 
  411c06:	48 8b 85 68 ff ff ff 	mov    rax,QWORD PTR [rbp-0x98]
  411c0d:	48 01 d0             	add    rax,rdx
  411c10:	8b 00                	mov    eax,DWORD PTR [rax]
  411c12:	89 c2                	mov    edx,eax
  411c14:	0f b7 8d 66 ff ff ff 	movzx  ecx,WORD PTR [rbp-0x9a]
  411c1b:	48 8b 85 70 ff ff ff 	mov    rax,QWORD PTR [rbp-0x90]
  411c22:	48 01 c8             	add    rax,rcx
  411c25:	0f b6 00             	movzx  eax,BYTE PTR [rax]
  411c28:	0f b6 c8             	movzx  ecx,al
  411c2b:	48 8b 85 08 ff ff ff 	mov    rax,QWORD PTR [rbp-0xf8]
  411c32:	89 ce                	mov    esi,ecx
  411c34:	48 89 c7             	mov    rdi,rax
  411c37:	e8 10 ad ff ff       	call   40c94c <bsW>
  411c3c:	8b 45 cc             	mov    eax,DWORD PTR [rbp-0x34]
  411c3f:	48 98                	cdqe   
  411c41:	48 83 c0 28          	add    rax,0x28
  411c45:	48 8d 14 00          	lea    rdx,[rax+rax*1]
  411c49:	48 8b 45 88          	mov    rax,QWORD PTR [rbp-0x78]
  411c4d:	48 01 d0             	add    rax,rdx
  411c50:	0f b7 00             	movzx  eax,WORD PTR [rax]
  411c53:	66 89 85 66 ff ff ff 	mov    WORD PTR [rbp-0x9a],ax
  411c5a:	0f b7 85 66 ff ff ff 	movzx  eax,WORD PTR [rbp-0x9a]
  411c61:	48 8d 14 85 00 00 00 	lea    rdx,[rax*4+0x0]
  411c68:	00 
  411c69:	48 8b 85 68 ff ff ff 	mov    rax,QWORD PTR [rbp-0x98]
  411c70:	48 01 d0             	add    rax,rdx
  411c73:	8b 00                	mov    eax,DWORD PTR [rax]
  411c75:	89 c2                	mov    edx,eax
  411c77:	0f b7 8d 66 ff ff ff 	movzx  ecx,WORD PTR [rbp-0x9a]
  411c7e:	48 8b 85 70 ff ff ff 	mov    rax,QWORD PTR [rbp-0x90]
  411c85:	48 01 c8             	add    rax,rcx
  411c88:	0f b6 00             	movzx  eax,BYTE PTR [rax]
  411c8b:	0f b6 c8             	movzx  ecx,al
  411c8e:	48 8b 85 08 ff ff ff 	mov    rax,QWORD PTR [rbp-0xf8]
  411c95:	89 ce                	mov    esi,ecx
  411c97:	48 89 c7             	mov    rdi,rax
  411c9a:	e8 ad ac ff ff       	call   40c94c <bsW>
  411c9f:	8b 45 cc             	mov    eax,DWORD PTR [rbp-0x34]
  411ca2:	48 98                	cdqe   
  411ca4:	48 83 c0 29          	add    rax,0x29
  411ca8:	48 8d 14 00          	lea    rdx,[rax+rax*1]
  411cac:	48 8b 45 88          	mov    rax,QWORD PTR [rbp-0x78]
  411cb0:	48 01 d0             	add    rax,rdx
  411cb3:	0f b7 00             	movzx  eax,WORD PTR [rax]
  411cb6:	66 89 85 66 ff ff ff 	mov    WORD PTR [rbp-0x9a],ax
  411cbd:	0f b7 85 66 ff ff ff 	movzx  eax,WORD PTR [rbp-0x9a]
  411cc4:	48 8d 14 85 00 00 00 	lea    rdx,[rax*4+0x0]
  411ccb:	00 
  411ccc:	48 8b 85 68 ff ff ff 	mov    rax,QWORD PTR [rbp-0x98]
  411cd3:	48 01 d0             	add    rax,rdx
  411cd6:	8b 00                	mov    eax,DWORD PTR [rax]
  411cd8:	89 c2                	mov    edx,eax
  411cda:	0f b7 8d 66 ff ff ff 	movzx  ecx,WORD PTR [rbp-0x9a]
  411ce1:	48 8b 85 70 ff ff ff 	mov    rax,QWORD PTR [rbp-0x90]
  411ce8:	48 01 c8             	add    rax,rcx
  411ceb:	0f b6 00             	movzx  eax,BYTE PTR [rax]
  411cee:	0f b6 c8             	movzx  ecx,al
  411cf1:	48 8b 85 08 ff ff ff 	mov    rax,QWORD PTR [rbp-0xf8]
  411cf8:	89 ce                	mov    esi,ecx
  411cfa:	48 89 c7             	mov    rdi,rax
  411cfd:	e8 4a ac ff ff       	call   40c94c <bsW>
  411d02:	8b 45 cc             	mov    eax,DWORD PTR [rbp-0x34]
  411d05:	48 98                	cdqe   
  411d07:	48 83 c0 2a          	add    rax,0x2a
  411d0b:	48 8d 14 00          	lea    rdx,[rax+rax*1]
  411d0f:	48 8b 45 88          	mov    rax,QWORD PTR [rbp-0x78]
  411d13:	48 01 d0             	add    rax,rdx
  411d16:	0f b7 00             	movzx  eax,WORD PTR [rax]
  411d19:	66 89 85 66 ff ff ff 	mov    WORD PTR [rbp-0x9a],ax
  411d20:	0f b7 85 66 ff ff ff 	movzx  eax,WORD PTR [rbp-0x9a]
  411d27:	48 8d 14 85 00 00 00 	lea    rdx,[rax*4+0x0]
  411d2e:	00 
  411d2f:	48 8b 85 68 ff ff ff 	mov    rax,QWORD PTR [rbp-0x98]
  411d36:	48 01 d0             	add    rax,rdx
  411d39:	8b 00                	mov    eax,DWORD PTR [rax]
  411d3b:	89 c2                	mov    edx,eax
  411d3d:	0f b7 8d 66 ff ff ff 	movzx  ecx,WORD PTR [rbp-0x9a]
  411d44:	48 8b 85 70 ff ff ff 	mov    rax,QWORD PTR [rbp-0x90]
  411d4b:	48 01 c8             	add    rax,rcx
  411d4e:	0f b6 00             	movzx  eax,BYTE PTR [rax]
  411d51:	0f b6 c8             	movzx  ecx,al
  411d54:	48 8b 85 08 ff ff ff 	mov    rax,QWORD PTR [rbp-0xf8]
  411d5b:	89 ce                	mov    esi,ecx
  411d5d:	48 89 c7             	mov    rdi,rax
  411d60:	e8 e7 ab ff ff       	call   40c94c <bsW>
  411d65:	8b 45 cc             	mov    eax,DWORD PTR [rbp-0x34]
  411d68:	48 98                	cdqe   
  411d6a:	48 83 c0 2b          	add    rax,0x2b
  411d6e:	48 8d 14 00          	lea    rdx,[rax+rax*1]
  411d72:	48 8b 45 88          	mov    rax,QWORD PTR [rbp-0x78]
  411d76:	48 01 d0             	add    rax,rdx
  411d79:	0f b7 00             	movzx  eax,WORD PTR [rax]
  411d7c:	66 89 85 66 ff ff ff 	mov    WORD PTR [rbp-0x9a],ax
  411d83:	0f b7 85 66 ff ff ff 	movzx  eax,WORD PTR [rbp-0x9a]
  411d8a:	48 8d 14 85 00 00 00 	lea    rdx,[rax*4+0x0]
  411d91:	00 
  411d92:	48 8b 85 68 ff ff ff 	mov    rax,QWORD PTR [rbp-0x98]
  411d99:	48 01 d0             	add    rax,rdx
  411d9c:	8b 00                	mov    eax,DWORD PTR [rax]
  411d9e:	89 c2                	mov    edx,eax
  411da0:	0f b7 8d 66 ff ff ff 	movzx  ecx,WORD PTR [rbp-0x9a]
  411da7:	48 8b 85 70 ff ff ff 	mov    rax,QWORD PTR [rbp-0x90]
  411dae:	48 01 c8             	add    rax,rcx
  411db1:	0f b6 00             	movzx  eax,BYTE PTR [rax]
  411db4:	0f b6 c8             	movzx  ecx,al
  411db7:	48 8b 85 08 ff ff ff 	mov    rax,QWORD PTR [rbp-0xf8]
  411dbe:	89 ce                	mov    esi,ecx
  411dc0:	48 89 c7             	mov    rdi,rax
  411dc3:	e8 84 ab ff ff       	call   40c94c <bsW>
  411dc8:	8b 45 cc             	mov    eax,DWORD PTR [rbp-0x34]
  411dcb:	48 98                	cdqe   
  411dcd:	48 83 c0 2c          	add    rax,0x2c
  411dd1:	48 8d 14 00          	lea    rdx,[rax+rax*1]
  411dd5:	48 8b 45 88          	mov    rax,QWORD PTR [rbp-0x78]
  411dd9:	48 01 d0             	add    rax,rdx
  411ddc:	0f b7 00             	movzx  eax,WORD PTR [rax]
  411ddf:	66 89 85 66 ff ff ff 	mov    WORD PTR [rbp-0x9a],ax
  411de6:	0f b7 85 66 ff ff ff 	movzx  eax,WORD PTR [rbp-0x9a]
  411ded:	48 8d 14 85 00 00 00 	lea    rdx,[rax*4+0x0]
  411df4:	00 
  411df5:	48 8b 85 68 ff ff ff 	mov    rax,QWORD PTR [rbp-0x98]
  411dfc:	48 01 d0             	add    rax,rdx
  411dff:	8b 00                	mov    eax,DWORD PTR [rax]
  411e01:	89 c2                	mov    edx,eax
  411e03:	0f b7 8d 66 ff ff ff 	movzx  ecx,WORD PTR [rbp-0x9a]
  411e0a:	48 8b 85 70 ff ff ff 	mov    rax,QWORD PTR [rbp-0x90]
  411e11:	48 01 c8             	add    rax,rcx
  411e14:	0f b6 00             	movzx  eax,BYTE PTR [rax]
  411e17:	0f b6 c8             	movzx  ecx,al
  411e1a:	48 8b 85 08 ff ff ff 	mov    rax,QWORD PTR [rbp-0xf8]
  411e21:	89 ce                	mov    esi,ecx
  411e23:	48 89 c7             	mov    rdi,rax
  411e26:	e8 21 ab ff ff       	call   40c94c <bsW>
  411e2b:	8b 45 cc             	mov    eax,DWORD PTR [rbp-0x34]
  411e2e:	48 98                	cdqe   
  411e30:	48 83 c0 2d          	add    rax,0x2d
  411e34:	48 8d 14 00          	lea    rdx,[rax+rax*1]
  411e38:	48 8b 45 88          	mov    rax,QWORD PTR [rbp-0x78]
  411e3c:	48 01 d0             	add    rax,rdx
  411e3f:	0f b7 00             	movzx  eax,WORD PTR [rax]
  411e42:	66 89 85 66 ff ff ff 	mov    WORD PTR [rbp-0x9a],ax
  411e49:	0f b7 85 66 ff ff ff 	movzx  eax,WORD PTR [rbp-0x9a]
  411e50:	48 8d 14 85 00 00 00 	lea    rdx,[rax*4+0x0]
  411e57:	00 
  411e58:	48 8b 85 68 ff ff ff 	mov    rax,QWORD PTR [rbp-0x98]
  411e5f:	48 01 d0             	add    rax,rdx
  411e62:	8b 00                	mov    eax,DWORD PTR [rax]
  411e64:	89 c2                	mov    edx,eax
  411e66:	0f b7 8d 66 ff ff ff 	movzx  ecx,WORD PTR [rbp-0x9a]
  411e6d:	48 8b 85 70 ff ff ff 	mov    rax,QWORD PTR [rbp-0x90]
  411e74:	48 01 c8             	add    rax,rcx
  411e77:	0f b6 00             	movzx  eax,BYTE PTR [rax]
  411e7a:	0f b6 c8             	movzx  ecx,al
  411e7d:	48 8b 85 08 ff ff ff 	mov    rax,QWORD PTR [rbp-0xf8]
  411e84:	89 ce                	mov    esi,ecx
  411e86:	48 89 c7             	mov    rdi,rax
  411e89:	e8 be aa ff ff       	call   40c94c <bsW>
  411e8e:	8b 45 cc             	mov    eax,DWORD PTR [rbp-0x34]
  411e91:	48 98                	cdqe   
  411e93:	48 83 c0 2e          	add    rax,0x2e
  411e97:	48 8d 14 00          	lea    rdx,[rax+rax*1]
  411e9b:	48 8b 45 88          	mov    rax,QWORD PTR [rbp-0x78]
  411e9f:	48 01 d0             	add    rax,rdx
  411ea2:	0f b7 00             	movzx  eax,WORD PTR [rax]
  411ea5:	66 89 85 66 ff ff ff 	mov    WORD PTR [rbp-0x9a],ax
  411eac:	0f b7 85 66 ff ff ff 	movzx  eax,WORD PTR [rbp-0x9a]
  411eb3:	48 8d 14 85 00 00 00 	lea    rdx,[rax*4+0x0]
  411eba:	00 
  411ebb:	48 8b 85 68 ff ff ff 	mov    rax,QWORD PTR [rbp-0x98]
  411ec2:	48 01 d0             	add    rax,rdx
  411ec5:	8b 00                	mov    eax,DWORD PTR [rax]
  411ec7:	89 c2                	mov    edx,eax
  411ec9:	0f b7 8d 66 ff ff ff 	movzx  ecx,WORD PTR [rbp-0x9a]
  411ed0:	48 8b 85 70 ff ff ff 	mov    rax,QWORD PTR [rbp-0x90]
  411ed7:	48 01 c8             	add    rax,rcx
  411eda:	0f b6 00             	movzx  eax,BYTE PTR [rax]
  411edd:	0f b6 c8             	movzx  ecx,al
  411ee0:	48 8b 85 08 ff ff ff 	mov    rax,QWORD PTR [rbp-0xf8]
  411ee7:	89 ce                	mov    esi,ecx
  411ee9:	48 89 c7             	mov    rdi,rax
  411eec:	e8 5b aa ff ff       	call   40c94c <bsW>
  411ef1:	8b 45 cc             	mov    eax,DWORD PTR [rbp-0x34]
  411ef4:	48 98                	cdqe   
  411ef6:	48 83 c0 2f          	add    rax,0x2f
  411efa:	48 8d 14 00          	lea    rdx,[rax+rax*1]
  411efe:	48 8b 45 88          	mov    rax,QWORD PTR [rbp-0x78]
  411f02:	48 01 d0             	add    rax,rdx
  411f05:	0f b7 00             	movzx  eax,WORD PTR [rax]
  411f08:	66 89 85 66 ff ff ff 	mov    WORD PTR [rbp-0x9a],ax
  411f0f:	0f b7 85 66 ff ff ff 	movzx  eax,WORD PTR [rbp-0x9a]
  411f16:	48 8d 14 85 00 00 00 	lea    rdx,[rax*4+0x0]
  411f1d:	00 
  411f1e:	48 8b 85 68 ff ff ff 	mov    rax,QWORD PTR [rbp-0x98]
  411f25:	48 01 d0             	add    rax,rdx
  411f28:	8b 00                	mov    eax,DWORD PTR [rax]
  411f2a:	89 c2                	mov    edx,eax
  411f2c:	0f b7 8d 66 ff ff ff 	movzx  ecx,WORD PTR [rbp-0x9a]
  411f33:	48 8b 85 70 ff ff ff 	mov    rax,QWORD PTR [rbp-0x90]
  411f3a:	48 01 c8             	add    rax,rcx
  411f3d:	0f b6 00             	movzx  eax,BYTE PTR [rax]
  411f40:	0f b6 c8             	movzx  ecx,al
  411f43:	48 8b 85 08 ff ff ff 	mov    rax,QWORD PTR [rbp-0xf8]
  411f4a:	89 ce                	mov    esi,ecx
  411f4c:	48 89 c7             	mov    rdi,rax
  411f4f:	e8 f8 a9 ff ff       	call   40c94c <bsW>
  411f54:	8b 45 cc             	mov    eax,DWORD PTR [rbp-0x34]
  411f57:	48 98                	cdqe   
  411f59:	48 83 c0 30          	add    rax,0x30
  411f5d:	48 8d 14 00          	lea    rdx,[rax+rax*1]
  411f61:	48 8b 45 88          	mov    rax,QWORD PTR [rbp-0x78]
  411f65:	48 01 d0             	add    rax,rdx
  411f68:	0f b7 00             	movzx  eax,WORD PTR [rax]
  411f6b:	66 89 85 66 ff ff ff 	mov    WORD PTR [rbp-0x9a],ax
  411f72:	0f b7 85 66 ff ff ff 	movzx  eax,WORD PTR [rbp-0x9a]
  411f79:	48 8d 14 85 00 00 00 	lea    rdx,[rax*4+0x0]
  411f80:	00 
  411f81:	48 8b 85 68 ff ff ff 	mov    rax,QWORD PTR [rbp-0x98]
  411f88:	48 01 d0             	add    rax,rdx
  411f8b:	8b 00                	mov    eax,DWORD PTR [rax]
  411f8d:	89 c2                	mov    edx,eax
  411f8f:	0f b7 8d 66 ff ff ff 	movzx  ecx,WORD PTR [rbp-0x9a]
  411f96:	48 8b 85 70 ff ff ff 	mov    rax,QWORD PTR [rbp-0x90]
  411f9d:	48 01 c8             	add    rax,rcx
  411fa0:	0f b6 00             	movzx  eax,BYTE PTR [rax]
  411fa3:	0f b6 c8             	movzx  ecx,al
  411fa6:	48 8b 85 08 ff ff ff 	mov    rax,QWORD PTR [rbp-0xf8]
  411fad:	89 ce                	mov    esi,ecx
  411faf:	48 89 c7             	mov    rdi,rax
  411fb2:	e8 95 a9 ff ff       	call   40c94c <bsW>
  411fb7:	8b 45 cc             	mov    eax,DWORD PTR [rbp-0x34]
  411fba:	48 98                	cdqe   
  411fbc:	48 83 c0 31          	add    rax,0x31
  411fc0:	48 8d 14 00          	lea    rdx,[rax+rax*1]
  411fc4:	48 8b 45 88          	mov    rax,QWORD PTR [rbp-0x78]
  411fc8:	48 01 d0             	add    rax,rdx
  411fcb:	0f b7 00             	movzx  eax,WORD PTR [rax]
  411fce:	66 89 85 66 ff ff ff 	mov    WORD PTR [rbp-0x9a],ax
  411fd5:	0f b7 85 66 ff ff ff 	movzx  eax,WORD PTR [rbp-0x9a]
  411fdc:	48 8d 14 85 00 00 00 	lea    rdx,[rax*4+0x0]
  411fe3:	00 
  411fe4:	48 8b 85 68 ff ff ff 	mov    rax,QWORD PTR [rbp-0x98]
  411feb:	48 01 d0             	add    rax,rdx
  411fee:	8b 00                	mov    eax,DWORD PTR [rax]
  411ff0:	89 c2                	mov    edx,eax
  411ff2:	0f b7 8d 66 ff ff ff 	movzx  ecx,WORD PTR [rbp-0x9a]
  411ff9:	48 8b 85 70 ff ff ff 	mov    rax,QWORD PTR [rbp-0x90]
  412000:	48 01 c8             	add    rax,rcx
  412003:	0f b6 00             	movzx  eax,BYTE PTR [rax]
  412006:	0f b6 c8             	movzx  ecx,al
  412009:	48 8b 85 08 ff ff ff 	mov    rax,QWORD PTR [rbp-0xf8]
  412010:	89 ce                	mov    esi,ecx
  412012:	48 89 c7             	mov    rdi,rax
  412015:	e8 32 a9 ff ff       	call   40c94c <bsW>
  41201a:	e9 dc 00 00 00       	jmp    4120fb <sendMTFValues+0x520d>
  41201f:	8b 45 cc             	mov    eax,DWORD PTR [rbp-0x34]
  412022:	89 45 d4             	mov    DWORD PTR [rbp-0x2c],eax
  412025:	e9 c5 00 00 00       	jmp    4120ef <sendMTFValues+0x5201>
  41202a:	48 8b 95 08 ff ff ff 	mov    rdx,QWORD PTR [rbp-0xf8]
  412031:	8b 45 a8             	mov    eax,DWORD PTR [rbp-0x58]
  412034:	48 98                	cdqe   
  412036:	0f b6 84 02 a8 06 00 	movzx  eax,BYTE PTR [rdx+rax*1+0x6a8]
  41203d:	00 
  41203e:	0f b6 c0             	movzx  eax,al
  412041:	8b 55 d4             	mov    edx,DWORD PTR [rbp-0x2c]
  412044:	48 63 d2             	movsxd rdx,edx
  412047:	48 8d 0c 12          	lea    rcx,[rdx+rdx*1]
  41204b:	48 8b 55 88          	mov    rdx,QWORD PTR [rbp-0x78]
  41204f:	48 01 ca             	add    rdx,rcx
  412052:	0f b7 12             	movzx  edx,WORD PTR [rdx]
  412055:	0f b7 ca             	movzx  ecx,dx
  412058:	48 8b 95 08 ff ff ff 	mov    rdx,QWORD PTR [rbp-0xf8]
  41205f:	48 63 c9             	movsxd rcx,ecx
  412062:	48 98                	cdqe   
  412064:	48 01 c0             	add    rax,rax
  412067:	48 89 c6             	mov    rsi,rax
  41206a:	48 c1 e6 07          	shl    rsi,0x7
  41206e:	48 01 f0             	add    rax,rsi
  412071:	48 01 c8             	add    rax,rcx
  412074:	48 05 54 26 00 00    	add    rax,0x2654
  41207a:	8b 44 82 08          	mov    eax,DWORD PTR [rdx+rax*4+0x8]
  41207e:	89 c2                	mov    edx,eax
  412080:	48 8b 8d 08 ff ff ff 	mov    rcx,QWORD PTR [rbp-0xf8]
  412087:	8b 45 a8             	mov    eax,DWORD PTR [rbp-0x58]
  41208a:	48 98                	cdqe   
  41208c:	0f b6 84 01 a8 06 00 	movzx  eax,BYTE PTR [rcx+rax*1+0x6a8]
  412093:	00 
  412094:	0f b6 c0             	movzx  eax,al
  412097:	8b 4d d4             	mov    ecx,DWORD PTR [rbp-0x2c]
  41209a:	48 63 c9             	movsxd rcx,ecx
  41209d:	48 8d 34 09          	lea    rsi,[rcx+rcx*1]
  4120a1:	48 8b 4d 88          	mov    rcx,QWORD PTR [rbp-0x78]
  4120a5:	48 01 f1             	add    rcx,rsi
  4120a8:	0f b7 09             	movzx  ecx,WORD PTR [rcx]
  4120ab:	0f b7 c9             	movzx  ecx,cx
  4120ae:	48 8b b5 08 ff ff ff 	mov    rsi,QWORD PTR [rbp-0xf8]
  4120b5:	48 63 c9             	movsxd rcx,ecx
  4120b8:	48 98                	cdqe   
  4120ba:	48 01 c0             	add    rax,rax
  4120bd:	48 89 c7             	mov    rdi,rax
  4120c0:	48 c1 e7 07          	shl    rdi,0x7
  4120c4:	48 01 f8             	add    rax,rdi
  4120c7:	48 01 f0             	add    rax,rsi
  4120ca:	48 01 c8             	add    rax,rcx
  4120cd:	48 05 40 93 00 00    	add    rax,0x9340
  4120d3:	0f b6 40 0c          	movzx  eax,BYTE PTR [rax+0xc]
  4120d7:	0f b6 c8             	movzx  ecx,al
  4120da:	48 8b 85 08 ff ff ff 	mov    rax,QWORD PTR [rbp-0xf8]
  4120e1:	89 ce                	mov    esi,ecx
  4120e3:	48 89 c7             	mov    rdi,rax
  4120e6:	e8 61 a8 ff ff       	call   40c94c <bsW>
  4120eb:	83 45 d4 01          	add    DWORD PTR [rbp-0x2c],0x1
  4120ef:	8b 45 d4             	mov    eax,DWORD PTR [rbp-0x2c]
  4120f2:	3b 45 c8             	cmp    eax,DWORD PTR [rbp-0x38]
  4120f5:	0f 8e 2f ff ff ff    	jle    41202a <sendMTFValues+0x513c>
  4120fb:	8b 45 c8             	mov    eax,DWORD PTR [rbp-0x38]
  4120fe:	83 c0 01             	add    eax,0x1
  412101:	89 45 cc             	mov    DWORD PTR [rbp-0x34],eax
  412104:	83 45 a8 01          	add    DWORD PTR [rbp-0x58],0x1
  412108:	e9 ad ea ff ff       	jmp    410bba <sendMTFValues+0x3ccc>
  41210d:	90                   	nop
  41210e:	8b 45 a8             	mov    eax,DWORD PTR [rbp-0x58]
  412111:	3b 45 b4             	cmp    eax,DWORD PTR [rbp-0x4c]
  412114:	74 0a                	je     412120 <sendMTFValues+0x5232>
  412116:	bf bf 0b 00 00       	mov    edi,0xbbf
  41211b:	e8 88 2d ff ff       	call   404ea8 <BZ2_bz__AssertH__fail>
  412120:	48 8b 85 08 ff ff ff 	mov    rax,QWORD PTR [rbp-0xf8]
  412127:	8b 80 90 02 00 00    	mov    eax,DWORD PTR [rax+0x290]
  41212d:	83 f8 02             	cmp    eax,0x2
  412130:	7e 2b                	jle    41215d <sendMTFValues+0x526f>
  412132:	48 8b 85 08 ff ff ff 	mov    rax,QWORD PTR [rbp-0xf8]
  412139:	8b 40 74             	mov    eax,DWORD PTR [rax+0x74]
  41213c:	89 c2                	mov    edx,eax
  41213e:	2b 95 78 ff ff ff    	sub    edx,DWORD PTR [rbp-0x88]
  412144:	48 8b 05 65 b1 20 00 	mov    rax,QWORD PTR [rip+0x20b165]        # 61d2b0 <stderr@GLIBC_2.2.5>
  41214b:	be 20 ad 41 00       	mov    esi,0x41ad20
  412150:	48 89 c7             	mov    rdi,rax
  412153:	b8 00 00 00 00       	mov    eax,0x0
  412158:	e8 93 f0 fe ff       	call   4011f0 <fprintf@plt>
  41215d:	48 81 c4 e0 00 00 00 	add    rsp,0xe0
  412164:	5b                   	pop    rbx
  412165:	41 5c                	pop    r12
  412167:	41 5d                	pop    r13
  412169:	41 5e                	pop    r14
  41216b:	5d                   	pop    rbp
  41216c:	c3                   	ret    

